(dp0
S'4024'
p1
(S'tnp1-port'
p2
S' TNP1 User Port'
p3
tp4
sS'4025'
p5
(S'partimage'
p6
S' Partition Image Port'
p7
tp8
sS'4022'
p9
(S'dnox'
p10
S' DNOX'
p11
tp12
sS'4020'
p13
(S'trap'
p14
S' TRAP Port'
p15
tp16
sS'4029'
p17
(S'ip-qsig'
p18
S' IP Q signaling protocol'
p19
tp20
sS'5988'
p21
(S'wbem-http'
p22
S' WBEM CIM-XML (HTTP)'
p23
tp24
sS'5989'
p25
(S'wbem-https'
p26
S' WBEM CIM-XML (HTTPS)'
p27
tp28
sS'5986'
p29
(S'wsmans'
p30
S' WBEM WS-Management HTTP over TLS/SSL'
p31
tp32
sS'5987'
p33
(S'wbem-rmi'
p34
S' WBEM RMI'
p35
tp36
sS'5985'
p37
(S'wsman'
p38
S' WBEM WS-Management HTTP'
p39
tp40
sS'346'
p41
(S'zserv'
p42
S' Zebra server'
p43
tp44
sS'3999'
p45
(S'remoteanything'
p46
S' neoworx remote-anything slave file browser'
p47
tp48
sS'3998'
p49
(S'dnx'
p50
S' Distributed Nagios Executor Service'
p51
tp52
sS'3997'
p53
(S'agentsease-db'
p54
S' aes_db'
p55
tp56
sS'3996'
p57
(S'abcsoftware'
p58
S' abcsoftware-01'
p59
tp60
sS'3995'
p61
(S'iss-mgmt-ssl'
p62
S' ISS Management Svcs SSL'
p63
tp64
sS'3993'
p65
(S'bv-agent'
p66
S' BindView-Agent'
p67
tp68
sS'3992'
p69
(S'bv-ds'
p70
S' BindView-DirectoryServer'
p71
tp72
sS'3991'
p73
(S'bv-smcsrv'
p74
S' BindView-SMCServer'
p75
tp76
sS'3990'
p77
(S'bv-is'
p78
S' BindView-IS'
p79
tp80
sS'43188'
p81
(S'reachout'
p82
S''
p83
tp84
sS'27374'
p85
(S'subseven'
p86
S' Subseven Windows trojan'
p87
tp88
sS'2312'
p89
(S'wanscaler'
p90
S' WANScaler Communication Service'
p91
tp92
sS'2313'
p93
(S'iapp'
p94
S' IAPP (Inter Access Point Protocol)'
p95
tp96
sS'32780'
p97
(S'sometimes-rpc23'
p98
S' Sometimes an RPC port on my Solaris box'
p99
tp100
sS'32787'
p101
(S'sometimes-rpc27'
p102
S' Sometimes an RPC port dmispd (DMI Service Provider)'
p103
tp104
sS'5859'
p105
(S'wherehoo'
p106
S' WHEREHOO'
p107
tp108
sS'8300'
p109
(S'tmi'
p110
S' Transport Management Interface'
p111
tp112
sS'4658'
p113
(S'playsta2-app'
p114
S' PlayStation2 App Port'
p115
tp116
sS'2269'
p117
(S'mikey'
p118
S' MIKEY'
p119
tp120
sS'18184'
p121
(S'opsec-lea'
p122
S' Check Point OPSEC'
p123
tp124
sS'2262'
p125
(S'comotionback'
p126
S' CoMotion Backup Server'
p127
tp128
sS'2260'
p129
(S'apc-2260'
p130
S' APC 2260'
p131
tp132
sS'2261'
p133
(S'comotionmaster'
p134
S' CoMotion Master Server'
p135
tp136
sS'18187'
p137
(S'opsec-ela'
p138
S' Check Point OPSEC'
p139
tp140
sS'2265'
p141
(S'apx500api-2'
p142
S' Audio Precision Apx500 API Port 2'
p143
tp144
sS'18181'
p145
(S'opsec-cvp'
p146
S' Check Point OPSEC'
p147
tp148
sS'2449'
p149
(S'ratl'
p150
S' RATL'
p151
tp152
sS'6055'
p153
(S'x11'
p154
S' X Window System'
p155
tp156
sS'108'
p157
(S'snagas'
p158
S' SNA Gateway Access Server'
p159
tp160
sS'109'
p161
(S'pop2'
p162
S' PostOffice V.2'
p163
tp164
sS'18183'
p165
(S'opsec-sam'
p166
S' Check Point OPSEC'
p167
tp168
sS'102'
p169
(S'iso-tsap'
p170
S' tsap ISO-TSAP Class 0'
p171
tp172
sS'103'
p173
(S'gppitnp'
p174
S' Genesis Point-to-Point Trans Net, or x400 ISO Email'
p175
tp176
sS'100'
p177
(S'newacct'
p178
S' [unauthorized use]'
p179
tp180
sS'101'
p181
(S'hostname'
p182
S' hostnames NIC Host Name Server'
p183
tp184
sS'106'
p185
(S'pop3pw'
p186
S' Eudora compatible PW changer'
p187
tp188
sS'104'
p189
(S'acr-nema'
p190
S' ACR-NEMA Digital Imag. & Comm. 300'
p191
tp192
sS'2046'
p193
(S'sdfunc'
p194
g83
tp195
sS'2047'
p196
(S'dls'
p197
g83
tp198
sS'2044'
p199
(S'rimsl'
p200
g83
tp201
sS'2045'
p202
(S'cdfunc'
p203
g83
tp204
sS'2042'
p205
(S'isis'
p206
g83
tp207
sS'2043'
p208
(S'isis-bcast'
p209
g83
tp210
sS'2040'
p211
(S'lam'
p212
g83
tp213
sS'2041'
p214
(S'interbase'
p215
g83
tp216
sS'6051'
p217
(S'x11'
p218
S' X Window System'
p219
tp220
sS'2048'
p221
(S'dls-monitor'
p222
g83
tp223
sS'2049'
p224
(S'nfs'
p225
S' networked file system'
p226
tp227
sS'9418'
p228
(S'git'
p229
S' Git revision control system'
p230
tp231
sS'6052'
p232
(S'x11'
p233
S' X Window System'
p234
tp235
sS'9616'
p236
(S'erunbook_agent'
p237
S' eRunbook Agent'
p238
tp239
sS'10005'
p240
(S'stel'
p241
S' Secure telnet'
p242
tp243
sS'8042'
p244
(S'fs-agent'
p245
S' FireScope Agent'
p246
tp247
sS'10007'
p248
(S'mvs-capacity'
p249
S' MVS Capacity'
p250
tp251
sS'10000'
p252
(S'snet-sensor-mgmt'
p253
S' SecureNet Pro Sensor https management server or apple airport admin'
p254
tp255
sS'10001'
p256
(S'scp-config'
p257
S' SCP Configuration'
p258
tp259
sS'3519'
p260
(S'nvmsgd'
p261
S' Netvion Messenger Port'
p262
tp263
sS'3513'
p264
(S'arcpd'
p265
S' Adaptec Remote Protocol'
p266
tp267
sS'3511'
p268
(S'webmail-2'
p269
S' WebMail/2'
p270
tp271
sS'3517'
p272
(S'802-11-iapp'
p273
S' IEEE  WLANs WG IAPP'
p274
tp275
sS'3515'
p276
(S'must-backplane'
p277
S' MUST Backplane'
p278
tp279
sS'3514'
p280
(S'must-p2p'
p281
S' MUST Peer to Peer'
p282
tp283
sS'3390'
p284
(S'dsc'
p285
S' Distributed Service Coordinator'
p286
tp287
sS'10008'
p288
(S'octopus'
p289
S' Octopus Multiplexer'
p290
tp291
sS'5405'
p292
(S'pcduo'
p293
S' RemCon PC-Duo - new port'
p294
tp295
sS'99'
p296
(S'metagram'
p297
S' Metagram Relay'
p298
tp299
sS'98'
p300
(S'linuxconf'
p301
g83
tp302
sS'91'
p303
(S'mit-dov'
p304
S' MIT Dover Spooler'
p305
tp306
sS'90'
p307
(S'dnsix'
p308
S' DNSIX Securit Attribute Token Map'
p309
tp310
sS'93'
p311
(S'dcp'
p312
S' Device Control Protocol'
p313
tp314
sS'92'
p315
(S'npp'
p316
S' Network Printing Protocol'
p317
tp318
sS'95'
p319
(S'supdup'
p320
S' BSD supdupd(8)'
p321
tp322
sS'94'
p323
(S'objcall'
p324
S' Tivoli Object Dispatcher'
p325
tp326
sS'97'
p327
(S'swift-rvf'
p328
S' Swift Remote Virtural File Protocol'
p329
tp330
sS'96'
p331
(S'dixie'
p332
S' DIXIE Protocol Specification'
p333
tp334
sS'1991'
p335
(S'stun-p2'
p336
S' cisco STUN Priority 2 port'
p337
tp338
sS'1990'
p339
(S'stun-p1'
p340
S' cisco STUN Priority 1 port'
p341
tp342
sS'1993'
p343
(S'snmp-tcp-port'
p344
S' cisco SNMP TCP port'
p345
tp346
sS'1620'
p347
(S'faxportwinport'
p348
g83
tp349
sS'1995'
p350
(S'perf-port'
p351
S' cisco perf port'
p352
tp353
sS'1994'
p354
(S'stun-port'
p355
S' cisco serial tunnel port'
p356
tp357
sS'1997'
p358
(S'gdp-port'
p359
S' cisco Gateway Discovery Protocol'
p360
tp361
sS'1996'
p362
(S'tr-rsrb-port'
p363
S' cisco Remote SRB port'
p364
tp365
sS'1999'
p366
(S'tcp-id-port'
p367
S' cisco identification port'
p368
tp369
sS'1998'
p370
(S'x25-svc-port'
p371
S' cisco X.25 service (XOT)'
p372
tp373
sS'5400'
p374
(S'pcduo-old'
p375
S' RemCon PC-Duo - old port'
p376
tp377
sS'19150'
p378
(S'gkrellm'
p379
S' GKrellM remote system activity meter daemon'
p380
tp381
sS'44334'
p382
(S'tinyfw'
p383
S' tiny personal firewall admin port'
p384
tp385
sS'555'
p386
(S'dsf'
p387
g83
tp388
sS'2869'
p389
(S'icslap'
p390
S' Universal Plug and Play Device Host, SSDP Discovery Service'
p391
tp392
sS'557'
p393
(S'openvms-sysipc'
p394
g83
tp395
sS'556'
p396
(S'remotefs'
p397
S' rfs, rfs_server, Brunhoff remote filesystem'
p398
tp399
sS'553'
p400
(S'pirp'
p401
g83
tp402
sS'552'
p403
(S'deviceshare'
p404
g83
tp405
sS'5055'
p406
(S'unot'
p407
S' UNOT'
p408
tp409
sS'7676'
p410
(S'imqbrokerd'
p411
S' iMQ Broker Rendezvous'
p412
tp413
sS'15660'
p414
(S'bex-xr'
p415
S' Backup Express Restore Server'
p416
tp417
sS'1199'
p418
(S'dmidi'
p419
S' DMIDI'
p420
tp421
sS'1198'
p422
(S'cajo-discovery'
p423
S' cajo reference discovery'
p424
tp425
sS'1191'
p426
(S'gpfs'
p427
S' General Parallel File System'
p428
tp429
sS'1190'
p430
(S'commlinx-avl'
p431
S' CommLinx GPS / AVL System'
p432
tp433
sS'1192'
p434
(S'caids-sensor'
p435
S' caids sensors channel'
p436
tp437
sS'1195'
p438
(S'rsf-1'
p439
S' RSF-1 clustering'
p440
tp441
sS'1194'
p442
(S'openvpn'
p443
S' OpenVPN'
p444
tp445
sS'1196'
p446
(S'netmagic'
p447
S' Network Magic'
p448
tp449
sS'6881'
p450
(S'bittorrent-tracker'
p451
S' BitTorrent tracker'
p452
tp453
sS'1755'
p454
(S'wms'
p455
S' Windows media service'
p456
tp457
sS'9592'
p458
(S'ldgateway'
p459
S' LANDesk Gateway'
p460
tp461
sS'1752'
p462
(S'lofr-lm'
p463
S' Leap of Faith Research License Manager'
p464
tp465
sS'1750'
p466
(S'sslp'
p467
S" Simple Socket Library's PortMaster"
p468
tp469
sS'1176'
p470
(S'indigo-server'
p471
S' Indigo Home Server'
p472
tp473
sS'1175'
p474
(S'dossier'
p475
S' Dossier Server'
p476
tp477
sS'1174'
p478
(S'fnet-remote-ui'
p479
S' FlashNet Remote Admin'
p480
tp481
sS'1173'
p482
(S'd-cinema-rrp'
p483
S' D-Cinema Request-Response'
p484
tp485
sS'3439'
p486
(S'hri-port'
p487
S' HRI Interface Port'
p488
tp489
sS'4252'
p490
(S'vrml-multi-use'
p491
S' VRML Multi User Systems'
p492
tp493
sS'1179'
p494
(S'b2n'
p495
S' Backup To Neighbor'
p496
tp497
sS'1178'
p498
(S'skkserv'
p499
S' SKK (kanji input)'
p500
tp501
sS'5530'
p502
(S'sdserv'
p503
S' ACE/Server services'
p504
tp505
sS'1287'
p506
(S'routematch'
p507
S' RouteMatch Com'
p508
tp509
sS'1282'
p510
(S'emperion'
p511
S' Emperion'
p512
tp513
sS'514'
p514
(S'shell'
p515
S' BSD rshd(8)'
p516
tp517
sS'8765'
p518
(S'ultraseek-http'
p519
S' Ultraseek HTTP'
p520
tp521
sS'689'
p522
(S'nmap'
p523
S' NMAP'
p524
tp525
sS'688'
p526
(S'realm-rusd'
p527
S' ApplianceWare managment protocol'
p528
tp529
sS'685'
p530
(S'mdc-portmapper'
p531
S' MDC Port Mapper'
p532
tp533
sS'684'
p534
(S'corba-iiop-ssl'
p535
S' CORBA IIOP SSL'
p536
tp537
sS'687'
p538
(S'asipregistry'
p539
g83
tp540
sS'686'
p541
(S'hcp-wismar'
p542
S' Hardware Control Protocol Wismar'
p543
tp544
sS'681'
p545
(S'entrust-aams'
p546
g83
tp547
sS'680'
p548
(S'entrust-aaas'
p549
g83
tp550
sS'683'
p551
(S'corba-iiop'
p552
g83
tp553
sS'682'
p554
(S'xfr'
p555
S' XFR'
p556
tp557
sS'458'
p558
(S'appleqtc'
p559
S' apple quick time'
p560
tp561
sS'8052'
p562
(S'senomix01'
p563
S' Senomix Timesheets Server'
p564
tp565
sS'8383'
p566
(S'm2mservices'
p567
S' M2m Services'
p568
tp569
sS'873'
p570
(S'rsync'
p571
S' Rsync server ( http://rsync.samba.org )'
p572
tp573
sS'8019'
p574
(S'qbdb'
p575
S' QB DB Dynamic Port'
p576
tp577
sS'627'
p578
(S'passgo-tivoli'
p579
S' PassGo Tivoli'
p580
tp581
sS'1222'
p582
(S'nerv'
p583
S' SNI R&D network'
p584
tp585
sS'1221'
p586
(S'sweetware-apps'
p587
S' SweetWARE Apps'
p588
tp589
sS'624'
p590
(S'cryptoadmin'
p591
S' Crypto Admin'
p592
tp593
sS'407'
p594
(S'timbuktu'
p595
g83
tp596
sS'406'
p597
(S'imsp'
p598
S' Interactive Mail Support Protocol'
p599
tp600
sS'1373'
p601
(S'chromagrafx'
p602
g83
tp603
sS'1372'
p604
(S'fc-ser'
p605
S' Fujitsu Config Protocol'
p606
tp607
sS'403'
p608
(S'decap'
p609
g83
tp610
sS'1374'
p611
(S'molly'
p612
S' EPI Software Systems'
p613
tp614
sS'401'
p615
(S'ups'
p616
S' Uninterruptible Power Supply'
p617
tp618
sS'400'
p619
(S'work-sol'
p620
S' Workstation Solutions'
p621
tp622
sS'1379'
p623
(S'dbreporter'
p624
S' Integrity Solutions'
p625
tp626
sS'4848'
p627
(S'appserv-http'
p628
S' App Server - Admin HTTP'
p629
tp630
sS'408'
p631
(S'prm-sm'
p632
S' Prospero Resource Manager Sys. Man.'
p633
tp634
sS'3837'
p635
(S'mkm-discovery'
p636
S' MARKEM Auto-Discovery'
p637
tp638
sS'3830'
p639
(S'cernsysmgmtagt'
p640
S' Cerner System Management Agent'
p641
tp642
sS'3831'
p643
(S'dvapps'
p644
S' Docsvault Application Service'
p645
tp646
sS'3839'
p647
(S'amx-rms'
p648
S' AMX Resource Management Suite'
p649
tp650
sS'13720'
p651
(S'netbackup'
p652
S' bprd          server'
p653
tp654
sS'13721'
p655
(S'netbackup'
p656
S' bpdbm         server'
p657
tp658
sS'5997'
p659
(S'ncd-pref'
p660
S' NCD preferences telnet port'
p661
tp662
sS'4035'
p663
(S'wap-push-http'
p664
S' WAP Push OTA-HTTP port'
p665
tp666
sS'1346'
p667
(S'alta-ana-lm'
p668
S' Alta Analytics License Manager'
p669
tp670
sS'4036'
p671
(S'wap-push-https'
p672
S' WAP Push OTA-HTTP secure'
p673
tp674
sS'4039'
p675
(S'fazzt-admin'
p676
S' Fazzt Administration'
p677
tp678
sS'457'
p679
(S'scohelp'
p680
g83
tp681
sS'5999'
p682
(S'ncd-conf'
p683
S' NCD configuration telnet port'
p684
tp685
sS'5998'
p686
(S'ncd-diag'
p687
S' NCD diagnostic telnet port'
p688
tp689
sS'3796'
p690
(S'spw-dialer'
p691
S' Spaceway Dialer'
p692
tp693
sS'11371'
p694
(S'pksd'
p695
S' PGP Public Key Server'
p696
tp697
sS'22273'
p698
(S'wnn6'
p699
S' Wnn6 (Japanese input)'
p700
tp701
sS'370'
p702
(S'codaauth2'
p703
g83
tp704
sS'373'
p705
(S'legent-1'
p706
S' Legent Corporation (now Computer Associates Intl.)'
p707
tp708
sS'8294'
p709
(S'blp4'
p710
S' Bloomberg intelligent client'
p711
tp712
sS'1244'
p713
(S'isbconference1'
p714
g83
tp715
sS'6143'
p716
(S'watershed-lm'
p717
S' Watershed License Manager'
p718
tp719
sS'392'
p720
(S'synotics-broker'
p721
S' SynOptics Port Broker Port'
p722
tp723
sS'391'
p724
(S'synotics-relay'
p725
S' SynOptics SNMP Relay Port'
p726
tp727
sS'397'
p728
(S'mptn'
p729
S' Multi Protocol Trans. Net.'
p730
tp731
sS'6146'
p732
(S'lonewolf-lm'
p733
S' Lone Wolf Systems License Manager'
p734
tp735
sS'6145'
p736
(S'statsci2-lm'
p737
S' StatSci License Manager - 2'
p738
tp739
sS'399'
p740
(S'iso-tsap-c2'
p741
S' ISO-TSAP Class 2'
p742
tp743
sS'2301'
p744
(S'compaqdiag'
p745
S' Compaq remote diagnostic/management'
p746
tp747
sS'2300'
p748
(S'cvmmon'
p749
S' CVMMON'
p750
tp751
sS'2302'
p752
(S'binderysupport'
p753
S' Bindery Support'
p754
tp755
sS'2304'
p756
(S'attachmate-uts'
p757
S' Attachmate UTS'
p758
tp759
sS'2307'
p760
(S'pehelp'
p761
g83
tp762
sS'3749'
p763
(S'cimtrak'
p764
S' CimTrak'
p765
tp766
sS'3742'
p767
(S'cst-port'
p768
S' CST - Configuration & Service Tracker'
p769
tp770
sS'248'
p771
(S'bhfhs'
p772
g83
tp773
sS'2271'
p774
(S'mmcals'
p775
S' Secure Meeting Maker Scheduling'
p776
tp777
sS'2270'
p778
(S'starschool'
p779
S' starSchool'
p780
tp781
sS'5200'
p782
(S'targus-getdata'
p783
S' TARGUS GetData'
p784
tp785
sS'12006'
p786
(S'dbisamserver2'
p787
S' DBISAM Database Server - Admin'
p788
tp789
sS'12005'
p790
(S'dbisamserver1'
p791
S' DBISAM Database Server - Regular'
p792
tp793
sS'12002'
p794
(S'entexthigh'
p795
S' IBM Enterprise Extender SNA COS High Priority'
p796
tp797
sS'12000'
p798
(S'cce4x'
p799
S' ClearCommerce Engine 4.x (www.clearcommerce.com)'
p800
tp801
sS'12001'
p802
(S'entextnetwk'
p803
S' IBM Enterprise Extender SNA COS Network Priority'
p804
tp805
sS'9535'
p806
(S'man'
p807
g83
tp808
sS'2456'
p809
(S'altav-remmgt'
p810
g83
tp811
sS'179'
p812
(S'bgp'
p813
S' Border Gateway Protocol'
p814
tp815
sS'177'
p816
(S'xdmcp'
p817
S' X Display Mgr. Control Proto'
p818
tp819
sS'176'
p820
(S'genrad-mux'
p821
g83
tp822
sS'174'
p823
(S'mailq'
p824
g83
tp825
sS'173'
p826
(S'xyplex-mux'
p827
g83
tp828
sS'1502'
p829
(S'shivadiscovery'
p830
S' Shiva'
p831
tp832
sS'2053'
p833
(S'knetd'
p834
g83
tp835
sS'657'
p836
(S'rmc'
p837
S' RMC'
p838
tp839
sS'3690'
p840
(S'svn'
p841
S' Subversion'
p842
tp843
sS'1500'
p844
(S'vlsi-lm'
p845
S' VLSI License Manager'
p846
tp847
sS'3697'
p848
(S'nw-license'
p849
S' NavisWorks License System'
p850
tp851
sS'655'
p852
(S'tinc'
p853
S' TINC'
p854
tp855
sS'652'
p856
(S'hello-port'
p857
S' HELLO_PORT'
p858
tp859
sS'1507'
p860
(S'symplex'
p861
g83
tp862
sS'1505'
p863
(S'funkproxy'
p864
S' Funk Software, Inc.'
p865
tp866
sS'3526'
p867
(S'starquiz-port'
p868
S' starQuiz Port'
p869
tp870
sS'3527'
p871
(S'beserver-msg-q'
p872
S' VERITAS Backup Exec Server'
p873
tp874
sS'9628'
p875
(S'odbcpathway'
p876
S' ODBC Pathway Service'
p877
tp878
sS'3520'
p879
(S'galileolog'
p880
S' Netvion Galileo Log Port'
p881
tp882
sS'3086'
p883
(S'sj3'
p884
S' SJ3 (kanji input)'
p885
tp886
sS'1600'
p887
(S'issd'
p888
g83
tp889
sS'2691'
p890
(S'itinternet'
p891
S' ITInternet ISM Server'
p892
tp893
sS'1974'
p894
(S'drp'
p895
S' DRP'
p896
tp897
sS'1605'
p898
(S'slp'
p899
S' Salutation Manager (Salutation Protocol)'
p900
tp901
sS'3220'
p902
(S'xnm-ssl'
p903
S' XML NM over SSL'
p904
tp905
sS'1607'
p906
(S'stt'
p907
g83
tp908
sS'49400'
p909
(S'compaqdiag'
p910
S' Compaq Web-based management'
p911
tp912
sS'7325'
p913
(S'swx'
p914
S' The Swiss Exchange'
p915
tp916
sS'7326'
p917
(S'icb'
p918
S" Internet Citizen's Band"
p919
tp920
sS'7320'
p921
(S'swx'
p922
S' The Swiss Exchange'
p923
tp924
sS'1615'
p925
(S'netbill-auth'
p926
S' NetBill Authorization Server'
p927
tp928
sS'5191'
p929
(S'aol-1'
p930
S' AmericaOnline1'
p931
tp932
sS'5190'
p933
(S'aol'
p934
S' America-Online.  Also can be used by ICQ'
p935
tp936
sS'5193'
p937
(S'aol-3'
p938
S' AmericaOnline3'
p939
tp940
sS'10083'
p941
(S'amidxtape'
p942
S' Amanda tape indexing'
p943
tp944
sS'11967'
p945
(S'sysinfo-sp'
p946
S' SysInfo Service Protocol'
p947
tp948
sS'8600'
p949
(S'asterix'
p950
S' Surveillance Data'
p951
tp952
sS'2875'
p953
(S'dxmessagebase2'
p954
S' DX Message Base Transport Protocol'
p955
tp956
sS'3351'
p957
(S'btrieve'
p958
S' Btrieve port'
p959
tp960
sS'1762'
p961
(S'landesk-rc'
p962
S' LANDesk Remote Control'
p963
tp964
sS'1763'
p965
(S'landesk-rc'
p966
S' LANDesk Remote Control'
p967
tp968
sS'1761'
p969
(S'landesk-rc'
p970
S' LANDesk Remote Control'
p971
tp972
sS'1143'
p973
(S'imyx'
p974
S' Infomatryx Exchange'
p975
tp976
sS'1141'
p977
(S'mxomss'
p978
S' User Message Service'
p979
tp980
sS'1147'
p981
(S'capioverlan'
p982
S' CAPIoverLAN'
p983
tp984
sS'1144'
p985
(S'fuscript'
p986
S' Fusion Script'
p987
tp988
sS'1145'
p989
(S'x9-icue'
p990
S' X9 iCue Show Control'
p991
tp992
sS'6969'
p993
(S'acmsoda'
p994
g83
tp995
sS'1148'
p996
(S'elfiq-repl'
p997
S' Elfiq Replication Service'
p998
tp999
sS'1149'
p1000
(S'bvtsonar'
p1001
S' BVT Sonar Service'
p1002
tp1003
sS'24554'
p1004
(S'binkp'
p1005
S' BINKP'
p1006
tp1007
sS'5502'
p1008
(S'fcp-srvr-inst1'
p1009
g83
tp1010
sS'5500'
p1011
(S'hotline'
p1012
S' Hotline file sharing client/server'
p1013
tp1014
sS'5501'
p1015
(S'fcp-addr-srvr2'
p1016
g83
tp1017
sS'692'
p1018
(S'hyperwave-isp'
p1019
S' Hyperwave-ISP'
p1020
tp1021
sS'1547'
p1022
(S'laplink'
p1023
g83
tp1024
sS'1544'
p1025
(S'aspeclmd'
p1026
g83
tp1027
sS'1545'
p1028
(S'vistium-share'
p1029
g83
tp1030
sS'1542'
p1031
(S'gridgen-elmd'
p1032
g83
tp1033
sS'1543'
p1034
(S'simba-cs'
p1035
g83
tp1036
sS'1540'
p1037
(S'rds'
p1038
g83
tp1039
sS'1541'
p1040
(S'rds2'
p1041
g83
tp1042
sS'11111'
p1043
(S'vce'
p1044
S' Viral Computing Environment (VCE)'
p1045
tp1046
sS'38292'
p1047
(S'landesk-cba'
p1048
g83
tp1049
sS'698'
p1050
(S'olsr'
p1051
S' OLSR'
p1052
tp1053
sS'699'
p1054
(S'accessnetwork'
p1055
S' Access Network'
p1056
tp1057
sS'1548'
p1058
(S'axon-lm'
p1059
S' Axon License Manager'
p1060
tp1061
sS'1549'
p1062
(S'shivahose'
p1063
S' Shiva Hose'
p1064
tp1065
sS'542'
p1066
(S'commerce'
p1067
g83
tp1068
sS'543'
p1069
(S'klogin'
p1070
S' Kerberos (v4/v5)'
p1071
tp1072
sS'540'
p1073
(S'uucp'
p1074
S' uucpd'
p1075
tp1076
sS'541'
p1077
(S'uucp-rlogin'
p1078
g83
tp1079
sS'544'
p1080
(S'kshell'
p1081
S' krcmd Kerberos (v4/v5)'
p1082
tp1083
sS'545'
p1084
(S'ekshell'
p1085
S' Kerberos encrypted remote shell -kfall'
p1086
tp1087
sS'548'
p1088
(S'afp'
p1089
S' AFP over TCP'
p1090
tp1091
sS'760'
p1092
(S'krbupdate'
p1093
S' kreg Kerberos (v4) registration'
p1094
tp1095
sS'6400'
p1096
(S'crystalreports'
p1097
S' Seagate Crystal Reports'
p1098
tp1099
sS'767'
p1100
(S'phonebook'
p1101
S' phone'
p1102
tp1103
sS'9988'
p1104
(S'nsesrvr'
p1105
S' Software Essentials Secure HTTP server'
p1106
tp1107
sS'8022'
p1108
(S'oa-system'
p1109
g83
tp1110
sS'8021'
p1111
(S'ftp-proxy'
p1112
S' Common FTP proxy port'
p1113
tp1114
sS'8025'
p1115
(S'ca-audit-da'
p1116
S' CA Audit Distribution Agent'
p1117
tp1118
sS'7443'
p1119
(S'oracleas-https'
p1120
S' Oracle Application Server HTTPS'
p1121
tp1122
sS'6567'
p1123
(S'esp'
p1124
S' eSilo Storage Protocol'
p1125
tp1126
sS'6566'
p1127
(S'sane-port'
p1128
S' SANE Control Port'
p1129
tp1130
sS'414'
p1131
(S'infoseek'
p1132
g83
tp1133
sS'415'
p1134
(S'bnet'
p1135
g83
tp1136
sS'416'
p1137
(S'silverplatter'
p1138
g83
tp1139
sS'417'
p1140
(S'onmux'
p1141
S' Meeting maker'
p1142
tp1143
sS'1388'
p1144
(S'objective-dbc'
p1145
S' Objective Solutions DataBase Cache'
p1146
tp1147
sS'1389'
p1148
(S'iclpv-dm'
p1149
S' Document Manager'
p1150
tp1151
sS'412'
p1152
(S'synoptics-trap'
p1153
S' Trap Convention Port'
p1154
tp1155
sS'413'
p1156
(S'smsp'
p1157
g83
tp1158
sS'1384'
p1159
(S'os-licman'
p1160
S' Objective Solutions License Manager'
p1161
tp1162
sS'1385'
p1163
(S'atex_elmd'
p1164
S' Atex Publishing License Manager'
p1165
tp1166
sS'1386'
p1167
(S'checksum'
p1168
S' CheckSum License Manager'
p1169
tp1170
sS'1387'
p1171
(S'cadsi-lm'
p1172
S' Computer Aided Design Software Inc LM'
p1173
tp1174
sS'418'
p1175
(S'hyper-g'
p1176
g83
tp1177
sS'1381'
p1178
(S'apple-licman'
p1179
S' Apple Network License Manager'
p1180
tp1181
sS'1383'
p1182
(S'gwha'
p1183
S' GW Hannaway Network License Manager'
p1184
tp1185
sS'3827'
p1186
(S'netmpi'
p1187
S' Netadmin Systems MPI service'
p1188
tp1189
sS'3826'
p1190
(S'wormux'
p1191
S' Wormux server'
p1192
tp1193
sS'3825'
p1194
(S'ffserver'
p1195
S' Antera FlowFusion Process Simulation'
p1196
tp1197
sS'3824'
p1198
(S'acp-policy'
p1199
S' Compute Pool Policy'
p1200
tp1201
sS'3823'
p1202
(S'acp-conduit'
p1203
S' Compute Pool Conduit'
p1204
tp1205
sS'3820'
p1206
(S'scp'
p1207
S' Siemens AuD SCP'
p1208
tp1209
sS'3828'
p1210
(S'neteh'
p1211
S' Netadmin Systems Event Handler'
p1212
tp1213
sS'8443'
p1214
(S'https-alt'
p1215
S' Common alternative https port'
p1216
tp1217
sS'5005'
p1218
(S'avt-profile-2'
p1219
S' RTP control protocol [RFC 3551][RFC 4571]'
p1220
tp1221
sS'9152'
p1222
(S'ms-sql2000'
p1223
g83
tp1224
sS'369'
p1225
(S'rpc2portmap'
p1226
g83
tp1227
sS'366'
p1228
(S'odmr'
p1229
g83
tp1230
sS'364'
p1231
(S'aurora-cmgr'
p1232
g83
tp1233
sS'362'
p1234
(S'srssend'
p1235
S' SRS Send'
p1236
tp1237
sS'360'
p1238
(S'scoi2odialog'
p1239
g83
tp1240
sS'361'
p1241
(S'semantix'
p1242
g83
tp1243
sS'380'
p1244
(S'is99s'
p1245
S' TIA/EIA/IS-99 modem server'
p1246
tp1247
sS'383'
p1248
(S'hp-alarm-mgr'
p1249
S' hp performance data alarm manager'
p1250
tp1251
sS'388'
p1252
(S'unidata-ldm'
p1253
S' Unidata LDM Version 4'
p1254
tp1255
sS'389'
p1256
(S'ldap'
p1257
S' Lightweight Directory Access Protocol'
p1258
tp1259
sS'19283'
p1260
(S'keysrvr'
p1261
S' Key Server for SASSAFRAS'
p1262
tp1263
sS'1077'
p1264
(S'imgames'
p1265
S' IMGames'
p1266
tp1267
sS'2190'
p1268
(S'tivoconnect'
p1269
S' TiVoConnect Beacon'
p1270
tp1271
sS'2191'
p1272
(S'tvbus'
p1273
S' TvBus Messaging'
p1274
tp1275
sS'258'
p1276
(S'fw1-mc-gui'
p1277
S' also yak winsock personal chat'
p1278
tp1279
sS'259'
p1280
(S'esro-gen'
p1281
S' efficient short remote operations'
p1282
tp1283
sS'2197'
p1284
(S'mnp-exchange'
p1285
S' MNP data exchange'
p1286
tp1287
sS'256'
p1288
(S'fw1-secureremote'
p1289
S' also "rap"'
p1290
tp1291
sS'257'
p1292
(S'fw1-mc-fwmodule'
p1293
S' FW1 management console for communication w/modules and also secure electronic transaction (set) port'
p1294
tp1295
sS'2200'
p1296
(S'ici'
p1297
S' ICI'
p1298
tp1299
sS'2201'
p1300
(S'ats'
p1301
S' Advanced Training System Program'
p1302
tp1303
sS'2203'
p1304
(S'b2-runtime'
p1305
S' b2 Runtime Protocol'
p1306
tp1307
sS'6689'
p1308
(S'tsa'
p1309
S' Tofino Security Appliance'
p1310
tp1311
sS'9500'
p1312
(S'ismserver'
p1313
g83
tp1314
sS'2425'
p1315
(S'fjitsuappmgr'
p1316
S' Fujitsu App Manager'
p1317
tp1318
sS'168'
p1319
(S'rsvd'
p1320
g83
tp1321
sS'161'
p1322
(S'snmp'
p1323
g83
tp1324
sS'162'
p1325
(S'snmptrap'
p1326
S' snmp-trap'
p1327
tp1328
sS'163'
p1329
(S'cmip-man'
p1330
S' CMIP/TCP Manager'
p1331
tp1332
sS'3689'
p1333
(S'rendezvous'
p1334
S' Rendezvous Zeroconf (used by Apple/iTunes)'
p1335
tp1336
sS'6350'
p1337
(S'adap'
p1338
S' App Discovery and Access Protocol'
p1339
tp1340
sS'3683'
p1341
(S'bmc-ea'
p1342
S' BMC EDV/EA'
p1343
tp1344
sS'3681'
p1345
(S'bts-x73'
p1346
S' BTS X73 Port'
p1347
tp1348
sS'3680'
p1349
(S'npds-tracker'
p1350
S' NPDS Tracker'
p1351
tp1352
sS'3684'
p1353
(S'faxstfx-port'
p1354
S' FAXstfX'
p1355
tp1356
sS'7999'
p1357
(S'irdmi2'
p1358
S' iRDMI2'
p1359
tp1360
sS'2734'
p1361
(S'ccs-software'
p1362
S' CCS Software'
p1363
tp1364
sS'9343'
p1365
(S'mpidcmgr'
p1366
S' MpIdcMgr'
p1367
tp1368
sS'5298'
p1369
(S'presence'
p1370
S' XMPP Link-Local Messaging'
p1371
tp1372
sS'9618'
p1373
(S'condor'
p1374
S' Condor Collector Service'
p1375
tp1376
sS'10160'
p1377
(S'qb-db-server'
p1378
S' QB Database Server'
p1379
tp1380
sS'3531'
p1381
(S'peerenabler'
p1382
S' P2PNetworking/PeerEnabler protocol'
p1383
tp1384
sS'3530'
p1385
(S'gf'
p1386
S' Grid Friendly'
p1387
tp1388
sS'3532'
p1389
(S'raven-rmp'
p1390
S' Raven Remote Management Control'
p1391
tp1392
sS'5054'
p1393
(S'rlm-admin'
p1394
S' RLM administrative interface'
p1395
tp1396
sS'678'
p1397
(S'ggf-ncp'
p1398
S' GNU Generation Foundation NCP'
p1399
tp1400
sS'5050'
p1401
(S'mmcc'
p1402
S' multimedia conference control tool'
p1403
tp1404
sS'5051'
p1405
(S'ida-agent'
p1406
S' Symantec Intruder Alert'
p1407
tp1408
sS'5052'
p1409
(S'ita-manager'
p1410
S' ITA Manager'
p1411
tp1412
sS'5053'
p1413
(S'rlm'
p1414
S' RLM License Server'
p1415
tp1416
sS'16900'
p1417
(S'newbay-snc-mc'
p1418
S' Newbay Mobile Client Update Service'
p1419
tp1420
sS'1811'
p1421
(S'scientia-sdb'
p1422
S' Scientia-SDB'
p1423
tp1424
sS'1812'
p1425
(S'radius'
p1426
S' RADIUS'
p1427
tp1428
sS'7201'
p1429
(S'dlip'
p1430
g83
tp1431
sS'7200'
p1432
(S'fodms'
p1433
S' FODMS FLIP'
p1434
tp1435
sS'6222'
p1436
(S'radmind'
p1437
S' Radmind protocol'
p1438
tp1439
sS'13718'
p1440
(S'netbackup'
p1441
S' lmfcd         server'
p1442
tp1443
sS'670'
p1444
(S'vacdsm-sws'
p1445
S' VACDSM-SWS'
p1446
tp1447
sS'4333'
p1448
(S'msql'
p1449
S' mini-sql server'
p1450
tp1451
sS'12121'
p1452
(S'nupaper-ss'
p1453
S' NuPaper Session Service'
p1454
tp1455
sS'18182'
p1456
(S'opsec-ufp'
p1457
S' Check Point OPSEC'
p1458
tp1459
sS'1976'
p1460
(S'tcoregagent'
p1461
S' TCO Reg Agent'
p1462
tp1463
sS'1975'
p1464
(S'tcoflashagent'
p1465
S' TCO Flash Agent'
p1466
tp1467
sS'1105'
p1468
(S'ftranhc'
p1469
S' FTRANHC'
p1470
tp1471
sS'1973'
p1472
(S'dlsrap'
p1473
S' Data Link Switching Remote Access Protocol'
p1474
tp1475
sS'1972'
p1476
(S'intersys-cache'
p1477
S' Cache'
p1478
tp1479
sS'1971'
p1480
(S'netop-school'
p1481
S' NetOp School'
p1482
tp1483
sS'808'
p1484
(S'ccproxy-http'
p1485
S' CCProxy HTTP/Gopher/FTP (over HTTP) proxy'
p1486
tp1487
sS'801'
p1488
(S'device'
p1489
g83
tp1490
sS'800'
p1491
(S'mdbs_daemon'
p1492
g83
tp1493
sS'13713'
p1494
(S'netbackup'
p1495
S' tl4d          server'
p1496
tp1497
sS'2847'
p1498
(S'aimpp-port-req'
p1499
S' AIMPP Port Req'
p1500
tp1501
sS'13714'
p1502
(S'netbackup'
p1503
S' tsdd          server'
p1504
tp1505
sS'3322'
p1506
(S'active-net'
p1507
S' Active Networks'
p1508
tp1509
sS'3323'
p1510
(S'active-net'
p1511
S' Active Networks'
p1512
tp1513
sS'3324'
p1514
(S'active-net'
p1515
S' Active Networks'
p1516
tp1517
sS'3325'
p1518
(S'active-net'
p1519
S' Active Networks'
p1520
tp1521
sS'3971'
p1522
(S'lanrevserver'
p1523
S' LANrev Server'
p1524
tp1525
sS'608'
p1526
(S'sift-uft'
p1527
S' Sender-Initiated/Unsolicited File Transfer'
p1528
tp1529
sS'1551'
p1530
(S'hecmtl-db'
p1531
g83
tp1532
sS'1159'
p1533
(S'oracle-oms'
p1534
S' Oracle OMS'
p1535
tp1536
sS'1158'
p1537
(S'lsnr'
p1538
S' Oracle DB listener'
p1539
tp1540
sS'1154'
p1541
(S'resacommunity'
p1542
S' Community Service'
p1543
tp1544
sS'1157'
p1545
(S'iascontrol'
p1546
S' Oracle iASControl'
p1547
tp1548
sS'1156'
p1549
(S'iascontrol-oms'
p1550
S' iasControl OMS'
p1551
tp1552
sS'1151'
p1553
(S'unizensus'
p1554
S' Unizensus Login Server'
p1555
tp1556
sS'1150'
p1557
(S'blaze'
p1558
S' Blaze File Server'
p1559
tp1560
sS'1153'
p1561
(S'c1222-acse'
p1562
S' ANSI C Port'
p1563
tp1564
sS'1152'
p1565
(S'winpoplanmess'
p1566
S' Winpopup LAN Messenger'
p1567
tp1568
sS'5510'
p1569
(S'secureidprop'
p1570
S' ACE/Server services'
p1571
tp1572
sS'5801'
p1573
(S'vnc-http-1'
p1574
S' Virtual Network Computer HTTP Access, display 1'
p1575
tp1576
sS'2998'
p1577
(S'iss-realsec'
p1578
S' ISS RealSecure IDS Remote Console Admin port'
p1579
tp1580
sS'1550'
p1581
(S'3m-image-lm'
p1582
S' Image Storage license manager 3M Company'
p1583
tp1584
sS'1552'
p1585
(S'pciarray'
p1586
g83
tp1587
sS'59'
p1588
(S'priv-file'
p1589
S' any private file service'
p1590
tp1591
sS'58'
p1592
(S'xns-mail'
p1593
S' XNS Mail'
p1594
tp1595
sS'1556'
p1596
(S'veritas_pbx'
p1597
S' VERITAS Private Branch Exchange'
p1598
tp1599
sS'1559'
p1600
(S'web2host'
p1601
g83
tp1602
sS'2991'
p1603
(S'wkstn-mon'
p1604
S' WKSTN-MON'
p1605
tp1606
sS'57'
p1607
(S'priv-term'
p1608
S' any private terminal access'
p1609
tp1610
sS'56'
p1611
(S'xns-auth'
p1612
S' XNS Authentication'
p1613
tp1614
sS'51'
p1615
(S'la-maint'
p1616
S' IMP Logical Address Maintenance'
p1617
tp1618
sS'50'
p1619
(S're-mail-ck'
p1620
S' Remote Mail Checking Protocol'
p1621
tp1622
sS'53'
p1623
(S'domain'
p1624
S' Domain Name Server'
p1625
tp1626
sS'52'
p1627
(S'xns-time'
p1628
S' XNS Time Protocol'
p1629
tp1630
sS'55'
p1631
(S'isi-gl'
p1632
S' ISI Graphics Language'
p1633
tp1634
sS'535'
p1635
(S'iiop'
p1636
g83
tp1637
sS'533'
p1638
(S'netwall'
p1639
S' for emergency broadcasts'
p1640
tp1641
sS'54'
p1642
(S'xns-ch'
p1643
S' XNS Clearinghouse'
p1644
tp1645
sS'538'
p1646
(S'gdomap'
p1647
g83
tp1648
sS'1558'
p1649
(S'xingmpeg'
p1650
g83
tp1651
sS'3030'
p1652
(S'arepa-cas'
p1653
S' Arepa Cas'
p1654
tp1655
sS'3031'
p1656
(S'eppc'
p1657
S' Remote AppleEvents/PPC Toolbox'
p1658
tp1659
sS'9999'
p1660
(S'abyss'
p1661
S' Abyss web server remote web management interface'
p1662
tp1663
sS'9998'
p1664
(S'distinct32'
p1665
S' Distinct32'
p1666
tp1667
sS'9991'
p1668
(S'issa'
p1669
S' ISS System Scanner Agent'
p1670
tp1671
sS'9990'
p1672
(S'osm-appsrvr'
p1673
S' OSM Applet Server'
p1674
tp1675
sS'2997'
p1676
(S'rebol'
p1677
S' REBOL'
p1678
tp1679
sS'9995'
p1680
(S'palace-4'
p1681
S' Palace-4'
p1682
tp1683
sS'536'
p1684
(S'opalis-rdv'
p1685
g83
tp1686
sS'6510'
p1687
(S'mcer-port'
p1688
S' MCER Port'
p1689
tp1690
sS'428'
p1691
(S'ocs_cmu'
p1692
g83
tp1693
sS'1900'
p1694
(S'upnp'
p1695
S' Universal PnP'
p1696
tp1697
sS'1399'
p1698
(S'cadkey-licman'
p1699
S' Cadkey License Manager'
p1700
tp1701
sS'1398'
p1702
(S'video-activmail'
p1703
S' Video Active Mail'
p1704
tp1705
sS'1397'
p1706
(S'audio-activmail'
p1707
S' Audio Active Mail'
p1708
tp1709
sS'1396'
p1710
(S'dvl-activemail'
p1711
S' DVL Active Mail'
p1712
tp1713
sS'1395'
p1714
(S'iclpv-wsm'
p1715
S' PC Workstation Manager software'
p1716
tp1717
sS'1394'
p1718
(S'iclpv-nlc'
p1719
S' Network Log Client'
p1720
tp1721
sS'1393'
p1722
(S'iclpv-nls'
p1723
S' Network Log Server'
p1724
tp1725
sS'427'
p1726
(S'svrloc'
p1727
S' Server Location'
p1728
tp1729
sS'1390'
p1730
(S'iclpv-sc'
p1731
S' Storage Controller'
p1732
tp1733
sS'3812'
p1734
(S'neto-wol-server'
p1735
S' netO WOL Server'
p1736
tp1737
sS'3813'
p1738
(S'rap-ip'
p1739
S' Rhapsody Interface Protocol'
p1740
tp1741
sS'3810'
p1742
(S'wlanauth'
p1743
S' WLAN AS server'
p1744
tp1745
sS'3811'
p1746
(S'amp'
p1747
S' AMP'
p1748
tp1749
sS'3817'
p1750
(S'tapeware'
p1751
S' Yosemite Tech Tapeware'
p1752
tp1753
sS'3814'
p1754
(S'neto-dcs'
p1755
S' netO DCS'
p1756
tp1757
sS'530'
p1758
(S'courier'
p1759
S' rpc'
p1760
tp1761
sS'3457'
p1762
(S'vat-control'
p1763
S' VAT default control'
p1764
tp1765
sS'4298'
p1766
(S'vrml-multi-use'
p1767
S' VRML Multi User Systems'
p1768
tp1769
sS'4294'
p1770
(S'vrml-multi-use'
p1771
S' VRML Multi User Systems'
p1772
tp1773
sS'4297'
p1774
(S'vrml-multi-use'
p1775
S' VRML Multi User Systems'
p1776
tp1777
sS'27010'
p1778
(S'flexlm10'
p1779
S' FlexLM license manager additional ports'
p1780
tp1781
sS'1321'
p1782
(S'pip'
p1783
S' PIP'
p1784
tp1785
sS'6161'
p1786
(S'patrol-ism'
p1787
S' PATROL Internet Srv Mgr'
p1788
tp1789
sS'4745'
p1790
(S'fmp'
p1791
S' Funambol Mobile Push'
p1792
tp1793
sS'16000'
p1794
(S'fmsas'
p1795
S' Administration Server Access'
p1796
tp1797
sS'16001'
p1798
(S'fmsascon'
p1799
S' Administration Server Connector'
p1800
tp1801
sS'2187'
p1802
(S'ssmc'
p1803
S' Sepehr System Management Control'
p1804
tp1805
sS'224'
p1806
(S'masqdialer'
p1807
g83
tp1808
sS'223'
p1809
(S'cdc'
p1810
S' Certificate Distribution Center'
p1811
tp1812
sS'222'
p1813
(S'rsh-spx'
p1814
S' Berkeley rshd with SPX auth'
p1815
tp1816
sS'221'
p1817
(S'fln-spx'
p1818
S' Berkeley rlogind with SPX auth'
p1819
tp1820
sS'220'
p1821
(S'imap3'
p1822
S' Interactive Mail Access Protocol v3'
p1823
tp1824
sS'4713'
p1825
(S'pulseaudio'
p1826
S' Pulse Audio UNIX sound framework'
p1827
tp1828
sS'6699'
p1829
(S'napster'
p1830
S' Napster File (MP3) sharing  software'
p1831
tp1832
sS'151'
p1833
(S'hems'
p1834
g83
tp1835
sS'150'
p1836
(S'sql-net'
p1837
g83
tp1838
sS'2439'
p1839
(S'sybasedbsynch'
p1840
S' SybaseDBSynch'
p1841
tp1842
sS'2438'
p1843
(S'msp'
p1844
S' MSP'
p1845
tp1846
sS'157'
p1847
(S'knet-cmp'
p1848
S' KNET/VM Command/Message Protocol'
p1849
tp1850
sS'2433'
p1851
(S'codasrv-se'
p1852
g83
tp1853
sS'2432'
p1854
(S'codasrv'
p1855
g83
tp1856
sS'2431'
p1857
(S'venus-se'
p1858
g83
tp1859
sS'2430'
p1860
(S'venus'
p1861
g83
tp1862
sS'2436'
p1863
(S'topx'
p1864
S' TOP/X'
p1865
tp1866
sS'2435'
p1867
(S'optilogic'
p1868
S' OptiLogic'
p1869
tp1870
sS'25565'
p1871
(S'minecraft'
p1872
S' A video game - http://en.wikipedia.org/wiki/Minecraft'
p1873
tp1874
sS'9992'
p1875
(S'issc'
p1876
S' ISS System Scanner Console'
p1877
tp1878
sS'6347'
p1879
(S'gnutella2'
p1880
S' Gnutella2 file sharing protocol'
p1881
tp1882
sS'6346'
p1883
(S'gnutella'
p1884
S' Gnutella file sharing protocol'
p1885
tp1886
sS'32786'
p1887
(S'sometimes-rpc25'
p1888
S' Sometimes an RPC port (mountd)'
p1889
tp1890
sS'31416'
p1891
(S'boinc'
p1892
S' BOINC Client Control'
p1893
tp1894
sS'2505'
p1895
(S'ppcontrol'
p1896
S' PowerPlay Control'
p1897
tp1898
sS'2501'
p1899
(S'rtsclient'
p1900
S' Resource Tracking system client'
p1901
tp1902
sS'2500'
p1903
(S'rtsserv'
p1904
S' Resource Tracking system server'
p1905
tp1906
sS'9600'
p1907
(S'micromuse-ncpw'
p1908
S' MICROMUSE-NCPW'
p1909
tp1910
sS'2725'
p1911
(S'msolap-ptp2'
p1912
S' SQL Analysis Server'
p1913
tp1914
sS'2723'
p1915
(S'watchdog-nt'
p1916
S' WatchDog NT Protocol'
p1917
tp1918
sS'5280'
p1919
(S'xmpp-bosh'
p1920
S' Bidirectional-streams Over Synchronous HTTP (BOSH)'
p1921
tp1922
sS'2728'
p1923
(S'sqdr'
p1924
S' SQDR'
p1925
tp1926
sS'9191'
p1927
(S'sun-as-jpda'
p1928
S' Sun AppSvr JPDA'
p1929
tp1930
sS'1807'
p1931
(S'fhsp'
p1932
S' Fujitsu Hot Standby Protocol'
p1933
tp1934
sS'1806'
p1935
(S'musiconline'
p1936
S' Musiconline'
p1937
tp1938
sS'1805'
p1939
(S'enl-name'
p1940
S' ENL-Name'
p1941
tp1942
sS'8999'
p1943
(S'bctp'
p1944
S' Brodos Crypto Trade Protocol'
p1945
tp1946
sS'3787'
p1947
(S'fintrx'
p1948
S' Fintrx'
p1949
tp1950
sS'1801'
p1951
(S'msmq'
p1952
S' Microsoft Message Queuing'
p1953
tp1954
sS'1800'
p1955
(S'ansys-lm'
p1956
S' ANSYS-License manager'
p1957
tp1958
sS'3788'
p1959
(S'isrp-port'
p1960
S' SPACEWAY Routing port'
p1961
tp1962
sS'1808'
p1963
(S'oracle-vp2'
p1964
S' Oracle-VP2'
p1965
tp1966
sS'4998'
p1967
(S'maybe-veritas'
p1968
g83
tp1969
sS'4999'
p1970
(S'hfcs-manager'
p1971
S' HyperFileSQL Client/Server Database Engine Manager'
p1972
tp1973
sS'7300'
p1974
(S'swx'
p1975
S' The Swiss Exchange'
p1976
tp1977
sS'690'
p1978
(S'vatp'
p1979
S' Velazquez Application Transfer Protocol'
p1980
tp1981
sS'9021'
p1982
(S'panagolin-ident'
p1983
S' Pangolin Identification'
p1984
tp1985
sS'9287'
p1986
(S'cumulus'
p1987
S' Cumulus'
p1988
tp1989
sS'1947'
p1990
(S'sentinelsrm'
p1991
S' SentinelSRM'
p1992
tp1993
sS'9020'
p1994
(S'tambora'
p1995
S' TAMBORA'
p1996
tp1997
sS'810'
p1998
(S'fcp-udp'
p1999
S' FCP'
p2000
tp2001
sS'9022'
p2002
(S'paragent'
p2003
S' PrivateArk Remote Agent'
p2004
tp2005
sS'1250'
p2006
(S'swldy-sias'
p2007
g83
tp2008
sS'1622'
p2009
(S'ontime'
p2010
g83
tp2011
sS'2850'
p2012
(S'metaconsole'
p2013
S' MetaConsole'
p2014
tp2015
sS'41794'
p2016
(S'crestron-cip'
p2017
S' Crestron Control Port'
p2018
tp2019
sS'1251'
p2020
(S'servergraph'
p2021
g83
tp2022
sS'3333'
p2023
(S'dec-notes'
p2024
S' DEC Notes'
p2025
tp2026
sS'1491'
p2027
(S'anynetgateway'
p2028
g83
tp2029
sS'1492'
p2030
(S'stone-design-1'
p2031
g83
tp2032
sS'1493'
p2033
(S'netmap_lm'
p2034
g83
tp2035
sS'1494'
p2036
(S'citrix-ica'
p2037
g83
tp2038
sS'1495'
p2039
(S'cvc'
p2040
g83
tp2041
sS'1496'
p2042
(S'liberty-lm'
p2043
g83
tp2044
sS'1497'
p2045
(S'rfx-lm'
p2046
g83
tp2047
sS'1498'
p2048
(S'watcom-sql'
p2049
g83
tp2050
sS'1499'
p2051
(S'fhc'
p2052
S' Federico Heinz Consultora'
p2053
tp2054
sS'423'
p2055
(S'opc-job-start'
p2056
S' IBM Operations Planning and Control Start'
p2057
tp2058
sS'1700'
p2059
(S'mps-raft'
p2060
g83
tp2061
sS'1701'
p2062
(S'l2f'
p2063
g83
tp2064
sS'1703'
p2065
(S'hb-engine'
p2066
g83
tp2067
sS'1707'
p2068
(S'vdmplay'
p2069
g83
tp2070
sS'1708'
p2071
(S'gat-lmd'
p2072
g83
tp2073
sS'1709'
p2074
(S'centra'
p2075
g83
tp2076
sS'3200'
p2077
(S'tick-port'
p2078
S' Press-sense Tick Port'
p2079
tp2080
sS'5269'
p2081
(S'xmpp-server'
p2082
S' XMPP Server Connection'
p2083
tp2084
sS'1391'
p2085
(S'iclpv-sas'
p2086
S' Storage Access Server'
p2087
tp2088
sS'1128'
p2089
(S'saphostctrl'
p2090
S' SAPHostControl over SOAP/HTTP'
p2091
tp2092
sS'1121'
p2093
(S'rmpp'
p2094
S' Datalode RMPP'
p2095
tp2096
sS'1122'
p2097
(S'availant-mgr'
p2098
g83
tp2099
sS'1123'
p2100
(S'murray'
p2101
S' Murray'
p2102
tp2103
sS'1124'
p2104
(S'hpvmmcontrol'
p2105
S' HP VMM Control'
p2106
tp2107
sS'1125'
p2108
(S'hpvmmagent'
p2109
S' HP VMM Agent'
p2110
tp2111
sS'1126'
p2112
(S'hpvmmdata'
p2113
S' HP VMM Agent'
p2114
tp2115
sS'1127'
p2116
(S'supfiledbg'
p2117
S' SUP debugging'
p2118
tp2119
sS'13715'
p2120
(S'netbackup'
p2121
S' tshd          server'
p2122
tp2123
sS'2988'
p2124
(S'hippad'
p2125
S' HIPPA Reporting Protocol'
p2126
tp2127
sS'3025'
p2128
(S'slnp'
p2129
S' SLNP (Simple Library Network Protocol) by Sisis Informationssysteme GmbH'
p2130
tp2131
sS'3023'
p2132
(S'magicnotes'
p2133
g83
tp2134
sS'2984'
p2135
(S'hpidsadmin'
p2136
S' HPIDSADMIN'
p2137
tp2138
sS'524'
p2139
(S'ncp'
p2140
g83
tp2141
sS'525'
p2142
(S'timed'
p2143
S' timeserver'
p2144
tp2145
sS'526'
p2146
(S'tempo'
p2147
S' newdate'
p2148
tp2149
sS'522'
p2150
(S'ulp'
p2151
g83
tp2152
sS'523'
p2153
(S'ibm-db2'
p2154
g83
tp2155
sS'528'
p2156
(S'custix'
p2157
S' Customer IXChange'
p2158
tp2159
sS'5234'
p2160
(S'eenet'
p2161
S' EEnet communications'
p2162
tp2163
sS'1234'
p2164
(S'hotline'
p2165
g83
tp2166
sS'1236'
p2167
(S'bvcontrol'
p2168
g83
tp2169
sS'1233'
p2170
(S'univ-appserver'
p2171
S' Universal App Server'
p2172
tp2173
sS'4192'
p2174
(S'azeti'
p2175
S' Azeti Agent Service'
p2176
tp2177
sS'1239'
p2178
(S'nmsd'
p2179
S' NMSD'
p2180
tp2181
sS'4190'
p2182
(S'sieve'
p2183
S' ManageSieve Protocol'
p2184
tp2185
sS'9107'
p2186
(S'jetdirect'
p2187
S' HP JetDirect card'
p2188
tp2189
sS'5672'
p2190
(S'amqp'
p2191
S' AMQP'
p2192
tp2193
sS'4358'
p2194
(S'qsnet-nucl'
p2195
S' QSNet Nucleus'
p2196
tp2197
sS'5678'
p2198
(S'rrac'
p2199
S' Remote Replication Agent Connection'
p2200
tp2201
sS'4355'
p2202
(S'qsnet-workst'
p2203
S' QSNet Workstation'
p2204
tp2205
sS'4356'
p2206
(S'qsnet-assist'
p2207
S' QSNet Assistant'
p2208
tp2209
sS'4357'
p2210
(S'qsnet-cond'
p2211
S' QSNet Conductor'
p2212
tp2213
sS'11001'
p2214
(S'metasys'
p2215
S' Metasys'
p2216
tp2217
sS'11000'
p2218
(S'irisa'
p2219
S' IRISA'
p2220
tp2221
sS'6503'
p2222
(S'boks_clntd'
p2223
S' BoKS Clntd'
p2224
tp2225
sS'6502'
p2226
(S'netop-rc'
p2227
S' NetOp Remote Control (by Danware Data A/S)'
p2228
tp2229
sS'6500'
p2230
(S'boks'
p2231
S' BoKS Master'
p2232
tp2233
sS'438'
p2234
(S'dsfgw'
p2235
g83
tp2236
sS'439'
p2237
(S'dasp'
p2238
g83
tp2239
sS'437'
p2240
(S'comscm'
p2241
g83
tp2242
sS'434'
p2243
(S'mobileip-agent'
p2244
g83
tp2245
sS'435'
p2246
(S'mobilip-mn'
p2247
g83
tp2248
sS'432'
p2249
(S'iasd'
p2250
g83
tp2251
sS'7501'
p2252
(S'ovbus'
p2253
S' HP OpenView Bus Daemon'
p2254
tp2255
sS'3809'
p2256
(S'apocd'
p2257
S' Java Desktop System Configuration Agent'
p2258
tp2259
sS'3808'
p2260
(S'sun-as-iiops-ca'
p2261
S' Sun App Svr-IIOPClntAuth'
p2262
tp2263
sS'3806'
p2264
(S'wsmlb'
p2265
S' Remote System Manager'
p2266
tp2267
sS'3801'
p2268
(S'ibm-mgr'
p2269
S' ibm manager service'
p2270
tp2271
sS'3800'
p2272
(S'pwgpsi'
p2273
S' Print Services Interface'
p2274
tp2275
sS'3803'
p2276
(S'soniqsync'
p2277
S' SoniqSync'
p2278
tp2279
sS'8192'
p2280
(S'sophos'
p2281
S' Sophos Remote Management System'
p2282
tp2283
sS'8193'
p2284
(S'sophos'
p2285
S' Sophos Remote Management System'
p2286
tp2287
sS'8194'
p2288
(S'sophos'
p2289
S' Sophos Remote Management System'
p2290
tp2291
sS'27009'
p2292
(S'flexlm9'
p2293
S' FlexLM license manager additional ports'
p2294
tp2295
sS'27007'
p2296
(S'flexlm7'
p2297
S' FlexLM license manager additional ports'
p2298
tp2299
sS'27005'
p2300
(S'flexlm5'
p2301
S' FlexLM license manager additional ports'
p2302
tp2303
sS'27002'
p2304
(S'flexlm2'
p2305
S' FlexLM license manager additional ports'
p2306
tp2307
sS'27003'
p2308
(S'flexlm3'
p2309
S' FlexLM license manager additional ports'
p2310
tp2311
sS'27000'
p2312
(S'flexlm0'
p2313
S' FlexLM license manager additional ports'
p2314
tp2315
sS'27001'
p2316
(S'flexlm1'
p2317
S' FlexLM license manager additional ports'
p2318
tp2319
sS'554'
p2320
(S'rtsp'
p2321
S' Real Time Stream Control Protocol'
p2322
tp2323
sS'19315'
p2324
(S'keyshadow'
p2325
S' Key Shadow for SASSAFRAS'
p2326
tp2327
sS'5814'
p2328
(S'spt-automation'
p2329
S' Support Automation'
p2330
tp2331
sS'65301'
p2332
(S'pcanywhere'
p2333
g83
tp2334
sS'48619'
p2335
(S'iqobject'
p2336
g83
tp2337
sS'5717'
p2338
(S'prosharenotify'
p2339
S' proshare conf notify'
p2340
tp2341
sS'2224'
p2342
(S'efi-mg'
p2343
S' Easy Flexible Internet/Multiplayer Games'
p2344
tp2345
sS'992'
p2346
(S'telnets'
p2347
S' telnet protocol over TLS/SSL'
p2348
tp2349
sS'2222'
p2350
(S'EtherNet/IP-1'
p2351
S' EtherNet/IP I/O'
p2352
tp2353
sS'1'
p2354
(S'tcpmux'
p2355
S' TCP Port Service Multiplexer [rfc-1078]'
p2356
tp2357
sS'146'
p2358
(S'iso-tp0'
p2359
g83
tp2360
sS'5357'
p2361
(S'wsdapi'
p2362
S' Web Services for Devices'
p2363
tp2364
sS'144'
p2365
(S'news'
p2366
S' NewS window system'
p2367
tp2368
sS'142'
p2369
(S'bl-idm'
p2370
S' Britton-Lee IDM'
p2371
tp2372
sS'143'
p2373
(S'imap'
p2374
S' Interim Mail Access Protocol v2'
p2375
tp2376
sS'141'
p2377
(S'emfis-cntl'
p2378
S' EMFIS Control Service'
p2379
tp2380
sS'148'
p2381
(S'cronus'
p2382
S' CRONUS-SUPPORT'
p2383
tp2384
sS'149'
p2385
(S'aed-512'
p2386
S' AED 512 Emulation Service'
p2387
tp2388
sS'4500'
p2389
(S'sae-urn'
p2390
g83
tp2391
sS'5353'
p2392
(S'mdns'
p2393
S' Multicast DNS'
p2394
tp2395
sS'2082'
p2396
(S'infowave'
p2397
S' Infowave Mobility Server'
p2398
tp2399
sS'2083'
p2400
(S'radsec'
p2401
S' Secure Radius Service'
p2402
tp2403
sS'2080'
p2404
(S'autodesk-nlm'
p2405
S' Autodesk NLM (FLEXlm)'
p2406
tp2407
sS'2081'
p2408
(S'kme-trap-port'
p2409
S' KME PRINTER TRAP PORT'
p2410
tp2411
sS'2086'
p2412
(S'gnunet'
p2413
S' GNUnet'
p2414
tp2415
sS'2087'
p2416
(S'eli'
p2417
S' ELI - Event Logging Integration'
p2418
tp2419
sS'2532'
p2420
(S'ovtopmd'
p2421
S' OVTOPMD'
p2422
tp2423
sS'2531'
p2424
(S'ito-e-gui'
p2425
S' ITO-E GUI'
p2426
tp2427
sS'2712'
p2428
(S'aocp'
p2429
S' Axapta Object Communication Protocol'
p2430
tp2431
sS'2710'
p2432
(S'sso-service'
p2433
S' SSO Service'
p2434
tp2435
sS'2711'
p2436
(S'sso-control'
p2437
S' SSO Control'
p2438
tp2439
sS'2717'
p2440
(S'pn-requester'
p2441
S' PN REQUESTER'
p2442
tp2443
sS'7070'
p2444
(S'realserver'
p2445
g83
tp2446
sS'2718'
p2447
(S'pn-requester2'
p2448
S' PN REQUESTER 2'
p2449
tp2450
sS'7071'
p2451
(S'iwg1'
p2452
S' IWGADTS Aircraft Housekeeping Message'
p2453
tp2454
sS'5070'
p2455
(S'vtsas'
p2456
S' VersaTrans Server Agent Service'
p2457
tp2458
sS'9160'
p2459
(S'apani1'
p2460
g83
tp2461
sS'9161'
p2462
(S'apani2'
p2463
g83
tp2464
sS'5074'
p2465
(S'alesquery'
p2466
S' ALES Query'
p2467
tp2468
sS'3799'
p2469
(S'radius-dynauth'
p2470
S' RADIUS Dynamic Authorization'
p2471
tp2472
sS'3798'
p2473
(S'minilock'
p2474
S' Minilock'
p2475
tp2476
sS'1835'
p2477
(S'ardusmul'
p2478
S' ARDUS Multicast'
p2479
tp2480
sS'3795'
p2481
(S'myblast'
p2482
S' myBLAST Mekentosj port'
p2483
tp2484
sS'1839'
p2485
(S'netopia-vo1'
p2486
g83
tp2487
sS'3790'
p2488
(S'quickbooksrds'
p2489
S' QuickBooks RDS'
p2490
tp2491
sS'3793'
p2492
(S'dcsoftware'
p2493
S' DataCore Software'
p2494
tp2495
sS'3792'
p2496
(S'sitewatch'
p2497
S' e-Watch Corporation SiteWatch'
p2498
tp2499
sS'2150'
p2500
(S'dynamic3d'
p2501
S' DYNAMIC3D'
p2502
tp2503
sS'4987'
p2504
(S'maybe-veritas'
p2505
g83
tp2506
sS'2401'
p2507
(S'cvspserver'
p2508
S' CVS network server'
p2509
tp2510
sS'1954'
p2511
(S'abr-api'
p2512
S' ABR-API (diskbridge)'
p2513
tp2514
sS'9700'
p2515
(S'board-roar'
p2516
S' Board M.I.T. Service'
p2517
tp2518
sS'1958'
p2519
(S'dxadmind'
p2520
S' CA Administration Daemon'
p2521
tp2522
sS'8873'
p2523
(S'dxspider'
p2524
S' dxspider linking protocol'
p2525
tp2526
sS'3240'
p2527
(S'triomotion'
p2528
S' Trio Motion Control Port'
p2529
tp2530
sS'829'
p2531
(S'pkix-3-ca-ra'
p2532
S' PKIX-3 CA/RA'
p2533
tp2534
sS'828'
p2535
(S'itm-mcell-s'
p2536
g83
tp2537
sS'1483'
p2538
(S'afs'
p2539
S' AFS License Manager'
p2540
tp2541
sS'1482'
p2542
(S'miteksys-lm'
p2543
S' Miteksys License Manager'
p2544
tp2545
sS'1480'
p2546
(S'pacerforum'
p2547
g83
tp2548
sS'9010'
p2549
(S'sdr'
p2550
S' Secure Data Replicator Protocol'
p2551
tp2552
sS'1486'
p2553
(S'nms_topo_serv'
p2554
g83
tp2555
sS'1484'
p2556
(S'confluent'
p2557
S' Confluent License Manager'
p2558
tp2559
sS'3306'
p2560
(S'mysql'
p2561
S' mySQL'
p2562
tp2563
sS'3307'
p2564
(S'opsession-prxy'
p2565
S' OP Session Proxy'
p2566
tp2567
sS'3304'
p2568
(S'opsession-srvr'
p2569
S' OP Session Server'
p2570
tp2571
sS'1488'
p2572
(S'docstor'
p2573
g83
tp2574
sS'5490'
p2575
(S'connect-proxy'
p2576
S' Many HTTP CONNECT proxies'
p2577
tp2578
sS'1713'
p2579
(S'conferencetalk'
p2580
S' ConferenceTalk'
p2581
tp2582
sS'1712'
p2583
(S'registrar'
p2584
S' resource monitoring service'
p2585
tp2586
sS'1711'
p2587
(S'pptconference'
p2588
g83
tp2589
sS'1717'
p2590
(S'fj-hdnet'
p2591
g83
tp2592
sS'1715'
p2593
(S'houdini-lm'
p2594
g83
tp2595
sS'1719'
p2596
(S'h323gatestat'
p2597
g83
tp2598
sS'1718'
p2599
(S'h323gatedisc'
p2600
g83
tp2601
sS'799'
p2602
(S'controlit'
p2603
S' Remotely possible'
p2604
tp2605
sS'1270'
p2606
(S'ssserver'
p2607
S' Sun StorEdge Configuration Service'
p2608
tp2609
sS'1271'
p2610
(S'excw'
p2611
S' eXcW'
p2612
tp2613
sS'1272'
p2614
(S'cspmlockmgr'
p2615
S' CSPMLockMgr'
p2616
tp2617
sS'1139'
p2618
(S'cce3x'
p2619
S' ClearCommerce Engine 3.x ( www.clearcommerce.com)'
p2620
tp2621
sS'1138'
p2622
(S'encrypted_admin'
p2623
S' encrypted admin requests'
p2624
tp2625
sS'1132'
p2626
(S'kvm-via-ip'
p2627
S' KVM-via-IP Management Service'
p2628
tp2629
sS'1131'
p2630
(S'caspssl'
p2631
S' CAC App Service Protocol Encripted'
p2632
tp2633
sS'1130'
p2634
(S'casp'
p2635
S' CAC App Service Protocol'
p2636
tp2637
sS'1137'
p2638
(S'trim'
p2639
S' TRIM Workgroup Service'
p2640
tp2641
sS'1136'
p2642
(S'hhb-gateway'
p2643
S' HHB Gateway Control'
p2644
tp2645
sS'1135'
p2646
(S'omnivision'
p2647
S' OmniVision Communication Service'
p2648
tp2649
sS'1134'
p2650
(S'aplx'
p2651
S' MicroAPL APLX'
p2652
tp2653
sS'614'
p2654
(S'sshell'
p2655
S' SSLshell'
p2656
tp2657
sS'7789'
p2658
(S'office-tools'
p2659
S' Office Tools Pro Receive'
p2660
tp2661
sS'1277'
p2662
(S'miva-mqs'
p2663
S' mqs'
p2664
tp2665
sS'3013'
p2666
(S'gilatskysurfer'
p2667
S' Gilat Sky Surfer'
p2668
tp2669
sS'3011'
p2670
(S'trusted-web'
p2671
S' Trusted Web'
p2672
tp2673
sS'3017'
p2674
(S'event_listener'
p2675
S' Event Listener'
p2676
tp2677
sS'3014'
p2678
(S'broker_service'
p2679
S' Broker Service'
p2680
tp2681
sS'518'
p2682
(S'ntalk'
p2683
S' (talkd)'
p2684
tp2685
sS'1008'
p2686
(S'ufsd'
p2687
S' ufsd\t\t# UFS-aware server'
p2688
tp2689
sS'511'
p2690
(S'passgo'
p2691
g83
tp2692
sS'510'
p2693
(S'fcp'
p2694
S' FirstClass Protocol'
p2695
tp2696
sS'513'
p2697
(S'login'
p2698
S' BSD rlogind(8)'
p2699
tp2700
sS'512'
p2701
(S'exec'
p2702
S' BSD rexecd(8)'
p2703
tp2704
sS'515'
p2705
(S'printer'
p2706
S' spooler (lpd)'
p2707
tp2708
sS'1002'
p2709
(S'windows-icfw'
p2710
S' Windows Internet Connection Firewall or Internet Locator Server for NetMeeting.'
p2711
tp2712
sS'1000'
p2713
(S'cadlock'
p2714
g83
tp2715
sS'623'
p2716
(S'oob-ws-http'
p2717
S' DMTF out-of-band web services management protocol'
p2718
tp2719
sS'622'
p2720
(S'collaborator'
p2721
S' Collaborator'
p2722
tp2723
sS'621'
p2724
(S'escp-ip'
p2725
S' ESCP'
p2726
tp2727
sS'620'
p2728
(S'sco-websrvrmgr'
p2729
S' SCO WebServer Manager'
p2730
tp2731
sS'1223'
p2732
(S'tgp'
p2733
S' TrulyGlobal Protocol'
p2734
tp2735
sS'626'
p2736
(S'apple-imap-admin'
p2737
S' Apple IMAP mail admin'
p2738
tp2739
sS'625'
p2740
(S'apple-xsrvr-admin'
p2741
S' Apple Mac Xserver admin'
p2742
tp2743
sS'1220'
p2744
(S'quicktime'
p2745
S' Apple Darwin and QuickTime Streaming Administration Servers'
p2746
tp2747
sS'629'
p2748
(S'3com-amp3'
p2749
S' 3Com AMP3'
p2750
tp2751
sS'628'
p2752
(S'qmqp'
p2753
S' Qmail Quick Mail Queueing'
p2754
tp2755
sS'1229'
p2756
(S'zented'
p2757
S' ZENworks Tiered Electronic Distribution'
p2758
tp2759
sS'1228'
p2760
(S'florence'
p2761
S' FLORENCE'
p2762
tp2763
sS'8293'
p2764
(S'hiperscan-id'
p2765
S' Hiperscan Identification Service'
p2766
tp2767
sS'8292'
p2768
(S'blp3'
p2769
S' Bloomberg professional'
p2770
tp2771
sS'5666'
p2772
(S'nrpe'
p2773
S' Nagios NRPE'
p2774
tp2775
sS'15000'
p2776
(S'hydap'
p2777
S' Hypack Hydrographic Software Packages Data Acquisition'
p2778
tp2779
sS'4343'
p2780
(S'unicall'
p2781
g83
tp2782
sS'4342'
p2783
(S'lisp-cons'
p2784
S' LISP-CONS Control'
p2785
tp2786
sS'2882'
p2787
(S'ndtp'
p2788
S' NDTP'
p2789
tp2790
sS'2888'
p2791
(S'spcsdlobby'
p2792
S' SPCSDLOBBY'
p2793
tp2794
sS'2889'
p2795
(S'rsom'
p2796
S' RSOM'
p2797
tp2798
sS'2'
p2799
(S'compressnet'
p2800
S' Management Utility'
p2801
tp2802
sS'3878'
p2803
(S'fotogcad'
p2804
S' FotoG CAD interface'
p2805
tp2806
sS'3879'
p2807
(S'appss-lm'
p2808
S' appss license manager'
p2809
tp2810
sS'3870'
p2811
(S'ovsam-d-agent'
p2812
S' hp OVSAM HostAgent Disco'
p2813
tp2814
sS'3871'
p2815
(S'avocent-adsap'
p2816
S' Avocent DS Authorization'
p2817
tp2818
sS'3872'
p2819
(S'oem-agent'
p2820
S' OEM Agent'
p2821
tp2822
sS'3876'
p2823
(S'dl_agent'
p2824
S' DirectoryLockdown Agent'
p2825
tp2826
sS'8474'
p2827
(S'noteshare'
p2828
S' AquaMinds NoteShare'
p2829
tp2830
sS'8471'
p2831
(S'pim-port'
p2832
S' PIM over Reliable Transport'
p2833
tp2834
sS'8470'
p2835
(S'cisco-avp'
p2836
S' Cisco Address Validation Protocol'
p2837
tp2838
sS'8472'
p2839
(S'otv'
p2840
S' Overlay Transport Virtualization (OTV)'
p2841
tp2842
sS'11'
p2843
(S'systat'
p2844
S' Active Users'
p2845
tp2846
sS'13'
p2847
(S'daytime'
p2848
g83
tp2849
sS'6401'
p2850
(S'crystalenterprise'
p2851
S' Seagate Crystal Enterprise'
p2852
tp2853
sS'15'
p2854
(S'netstat'
p2855
g83
tp2856
sS'17'
p2857
(S'qotd'
p2858
S' Quote of the Day'
p2859
tp2860
sS'5718'
p2861
(S'dpm'
p2862
S' DPM Communication Server'
p2863
tp2864
sS'19'
p2865
(S'chargen'
p2866
S' ttytst source Character Generator'
p2867
tp2868
sS'5714'
p2869
(S'prosharevideo'
p2870
S' proshare conf video'
p2871
tp2872
sS'5713'
p2873
(S'proshareaudio'
p2874
S' proshare conf audio'
p2875
tp2876
sS'3904'
p2877
(S'omnilink-port'
p2878
S' Arnet Omnilink Port'
p2879
tp2880
sS'3905'
p2881
(S'mupdate'
p2882
S' Mailbox Update (MUPDATE) protocol'
p2883
tp2884
sS'3906'
p2885
(S'topovista-data'
p2886
S' TopoVista elevation data'
p2887
tp2888
sS'3907'
p2889
(S'imoguia-port'
p2890
S' Imoguia Port'
p2891
tp2892
sS'3900'
p2893
(S'udt_os'
p2894
S' Unidata UDT OS'
p2895
tp2896
sS'3901'
p2897
(S'nimsh'
p2898
S' NIM Service Handler'
p2899
tp2900
sS'3902'
p2901
(S'nimaux'
p2902
S' NIMsh Auxiliary Port'
p2903
tp2904
sS'3908'
p2905
(S'hppronetman'
p2906
S' HP Procurve NetManagement'
p2907
tp2908
sS'3909'
p2909
(S'surfcontrolcpa'
p2910
S' SurfControl CPA'
p2911
tp2912
sS'3600'
p2913
(S'trap-daemon'
p2914
S' text relay-answer'
p2915
tp2916
sS'4164'
p2917
(S'silverpeakcomm'
p2918
S' Silver Peak Communication Protocol'
p2919
tp2920
sS'4161'
p2921
(S'omscontact'
p2922
S' OMS Contact'
p2923
tp2924
sS'5803'
p2925
(S'vnc-http-3'
p2926
S' Virtual Network Computer HTTP Access, display 3'
p2927
tp2928
sS'5802'
p2929
(S'vnc-http-2'
p2930
S' Virtual Network Computer HTTP Access, display 2'
p2931
tp2932
sS'4321'
p2933
(S'rwhois'
p2934
S' Remote Who Is'
p2935
tp2936
sS'5800'
p2937
(S'vnc-http'
p2938
S' Virtual Network Computer HTTP Access, display 0'
p2939
tp2940
sS'9950'
p2941
(S'apc-9950'
p2942
S' APC 9950'
p2943
tp2944
sS'201'
p2945
(S'at-rtmp'
p2946
S' AppleTalk Routing Maintenance'
p2947
tp2948
sS'200'
p2949
(S'src'
p2950
S' IBM System Resource Controller'
p2951
tp2952
sS'202'
p2953
(S'at-nbp'
p2954
S' AppleTalk Name Binding'
p2955
tp2956
sS'205'
p2957
(S'at-5'
p2958
S' AppleTalk Unused'
p2959
tp2960
sS'204'
p2961
(S'at-echo'
p2962
S' AppleTalk Echo'
p2963
tp2964
sS'206'
p2965
(S'at-zis'
p2966
S' AppleTalk Zone Information'
p2967
tp2968
sS'209'
p2969
(S'tam'
p2970
S' Trivial Authenticated Mail Protocol'
p2971
tp2972
sS'3476'
p2973
(S'nppmp'
p2974
S' NVIDIA Mgmt Protocol'
p2975
tp2976
sS'2232'
p2977
(S'ivs-video'
p2978
S' IVS Video default'
p2979
tp2980
sS'3497'
p2981
(S'ipether232port'
p2982
S' ipEther232Port'
p2983
tp2984
sS'3493'
p2985
(S'nut'
p2986
S' Network UPS Tools'
p2987
tp2988
sS'2095'
p2989
(S'nbx-ser'
p2990
S' NBX SER'
p2991
tp2992
sS'2096'
p2993
(S'nbx-dir'
p2994
S' NBX DIR'
p2995
tp2996
sS'3658'
p2997
(S'ps-ams'
p2998
S' PlayStation AMS (Secure)'
p2999
tp3000
sS'3659'
p3001
(S'apple-sasl'
p3002
S' Apple SASL'
p3003
tp3004
sS'3656'
p3005
(S'abatjss'
p3006
S' ActiveBatch Job Scheduler'
p3007
tp3008
sS'2099'
p3009
(S'h2250-annex-g'
p3010
S' H. Annex G'
p3011
tp3012
sS'3652'
p3013
(S'vxcrnbuport'
p3014
S' VxCR NBU Default Port'
p3015
tp3016
sS'3653'
p3017
(S'tsp'
p3018
S' Tunnel Setup Protocol'
p3019
tp3020
sS'2525'
p3021
(S'ms-v-worlds'
p3022
S' MS V-Worlds'
p3023
tp3024
sS'2522'
p3025
(S'windb'
p3026
S' WinDb'
p3027
tp3028
sS'4602'
p3029
(S'mtsserver'
p3030
S' EAX MTS Server'
p3031
tp3032
sS'4600'
p3033
(S'piranha1'
p3034
S' Piranha1'
p3035
tp3036
sS'20222'
p3037
(S'ipulse-ics'
p3038
S' iPulse-ICS'
p3039
tp3040
sS'4601'
p3041
(S'piranha2'
p3042
S' Piranha2'
p3043
tp3044
sS'5066'
p3045
(S'stanag-5066'
p3046
S' STANAG-5066-SUBNET-INTF'
p3047
tp3048
sS'5061'
p3049
(S'sip-tls'
p3050
S' SIP-TLS'
p3051
tp3052
sS'5060'
p3053
(S'sip'
p3054
S' Session Initiation Protocol (SIP)'
p3055
tp3056
sS'5063'
p3057
(S'csrpc'
p3058
S' centrify secure RPC'
p3059
tp3060
sS'2706'
p3061
(S'ncdmirroring'
p3062
S' NCD Mirroring'
p3063
tp3064
sS'2701'
p3065
(S'sms-rcinfo'
p3066
g83
tp3067
sS'2700'
p3068
(S'tqdata'
p3069
g83
tp3070
sS'2702'
p3071
(S'sms-xfer'
p3072
g83
tp3073
sS'4090'
p3074
(S'omasgport'
p3075
S' OMA BCAST Service Guide'
p3076
tp3077
sS'1825'
p3078
(S'direcpc-video'
p3079
S' DirecPC Video'
p3080
tp3081
sS'1827'
p3082
(S'pcm'
p3083
S' PCM Agent (AutoSecure Policy Compliance Manager'
p3084
tp3085
sS'4407'
p3086
(S'nacagent'
p3087
S' Network Access Control Agent'
p3088
tp3089
sS'4401'
p3090
(S'ds-srvr'
p3091
S' ASIGRA Televaulting DS-System Service'
p3092
tp3093
sS'1823'
p3094
(S'unisys-lm'
p3095
S' Unisys Natural Language License Manager'
p3096
tp3097
sS'2144'
p3098
(S'lv-ffx'
p3099
S' Live Vault Fast Object Transfer'
p3100
tp3101
sS'2142'
p3102
(S'tdmoip'
p3103
S' TDM OVER IP'
p3104
tp3105
sS'2418'
p3106
(S'cas'
p3107
g83
tp3108
sS'6251'
p3109
(S'tl1-raw-ssl'
p3110
S' TL1 Raw Over SSL/TLS'
p3111
tp3112
sS'2148'
p3113
(S'veritas-ucl'
p3114
S' Veritas Universal Communication Layer'
p3115
tp3116
sS'1924'
p3117
(S'xiip'
p3118
S' XIIP'
p3119
tp3120
sS'1927'
p3121
(S'videte-cipc'
p3122
S' Videte CIPC Port'
p3123
tp3124
sS'475'
p3125
(S'tcpnethaspsrv'
p3126
g83
tp3127
sS'832'
p3128
(S'netconfsoaphttp'
p3129
S' NETCONF for SOAP over HTTPS'
p3130
tp3131
sS'833'
p3132
(S'netconfsoapbeep'
p3133
S' NETCONF for SOAP over BEEP'
p3134
tp3135
sS'830'
p3136
(S'netconf-ssh'
p3137
S' NETCONF over SSH'
p3138
tp3139
sS'831'
p3140
(S'netconf-beep'
p3141
S' NETCONF over BEEP'
p3142
tp3143
sS'8888'
p3144
(S'sun-answerbook'
p3145
S' Sun Answerbook HTTP server.  Or gnump3d streaming music server'
p3146
tp3147
sS'8889'
p3148
(S'ddi-tcp-2'
p3149
S' Desktop Data TCP 1'
p3150
tp3151
sS'8880'
p3152
(S'cddbp-alt'
p3153
S' CDDBP'
p3154
tp3155
sS'3479'
p3156
(S'twrpc'
p3157
S' 2Wire RPC'
p3158
tp3159
sS'3'
p3160
(S'compressnet'
p3161
S' Compression Process'
p3162
tp3163
sS'8010'
p3164
(S'xmpp'
p3165
S' XMPP File Transfer'
p3166
tp3167
sS'50000'
p3168
(S'ibm-db2'
p3169
S' (also Internet/Intranet Input Method Server Framework?)'
p3170
tp3171
sS'30001'
p3172
(S'pago-services1'
p3173
S' Pago Services 1'
p3174
tp3175
sS'26208'
p3176
(S'wnn6_DS'
p3177
S' Wnn6 (Dserver)'
p3178
tp3179
sS'50002'
p3180
(S'iiimsf'
p3181
S' Internet/Intranet Input Method Server Framework'
p3182
tp3183
sS'3319'
p3184
(S'sdt-lmd'
p3185
S' SDT License Manager'
p3186
tp3187
sS'9002'
p3188
(S'dynamid'
p3189
S' DynamID authentication'
p3190
tp3191
sS'7025'
p3192
(S'vmsvc-2'
p3193
S' Vormetric Service II'
p3194
tp3195
sS'7024'
p3196
(S'vmsvc'
p3197
S' Vormetric service'
p3198
tp3199
sS'3311'
p3200
(S'mcns-tel-ret'
p3201
S' MCNS Tel Ret'
p3202
tp3203
sS'3310'
p3204
(S'dyna-access'
p3205
S' Dyna Access'
p3206
tp3207
sS'9009'
p3208
(S'pichat'
p3209
S' Pichat Server'
p3210
tp3211
sS'786'
p3212
(S'concert'
p3213
g83
tp3214
sS'787'
p3215
(S'qsc'
p3216
g83
tp3217
sS'780'
p3218
(S'wpgs'
p3219
g83
tp3220
sS'781'
p3221
(S'hp-collector'
p3222
S' hp performance data collector'
p3223
tp3224
sS'782'
p3225
(S'hp-managed-node'
p3226
S' hp performance data managed node'
p3227
tp3228
sS'783'
p3229
(S'spamassassin'
p3230
S' Apache SpamAssassin spamd'
p3231
tp3232
sS'5581'
p3233
(S'tmosms1'
p3234
S' T-Mobile SMS Protocol Message 1'
p3235
tp3236
sS'1722'
p3237
(S'hks-lm'
p3238
S' HKS License Manager'
p3239
tp3240
sS'1723'
p3241
(S'pptp'
p3242
S' Point-to-point tunnelling protocol'
p3243
tp3244
sS'1720'
p3245
(S'H.323/Q.931'
p3246
S' Interactive media'
p3247
tp3248
sS'1721'
p3249
(S'caicci'
p3250
g83
tp3251
sS'6579'
p3252
(S'affiliate'
p3253
S' Affiliate'
p3254
tp3255
sS'9001'
p3256
(S'tor-orport'
p3257
S' Tor ORPort'
p3258
tp3259
sS'9000'
p3260
(S'cslistener'
p3261
S' CSlistener'
p3262
tp3263
sS'3005'
p3264
(S'deslogin'
p3265
S' encrypted symmetric telnet/login'
p3266
tp3267
sS'3007'
p3268
(S'lotusmtap'
p3269
S' Lotus Mail Tracking Agent Protocol'
p3270
tp3271
sS'3006'
p3272
(S'deslogind'
p3273
g83
tp3274
sS'3001'
p3275
(S'nessus'
p3276
S' Nessus Security Scanner (www.nessus.org) Daemon or chili!soft asp'
p3277
tp3278
sS'3000'
p3279
(S'ppp'
p3280
S' User-level ppp daemon, or chili!soft asp'
p3281
tp3282
sS'66'
p3283
(S'sqlnet'
p3284
S' Oracle SQL*NET'
p3285
tp3286
sS'67'
p3287
(S'dhcps'
p3288
S' DHCP/Bootstrap Protocol Server'
p3289
tp3290
sS'68'
p3291
(S'dhcpc'
p3292
S' DHCP/Bootstrap Protocol Client'
p3293
tp3294
sS'69'
p3295
(S'tftp'
p3296
S' Trivial File Transfer'
p3297
tp3298
sS'1371'
p3299
(S'fc-cli'
p3300
S' Fujitsu Config Protocol'
p3301
tp3302
sS'47806'
p3303
(S'ap'
p3304
S' ALC Protocol'
p3305
tp3306
sS'1370'
p3307
(S'us-gv'
p3308
S' Unix Shell to GlobalView'
p3309
tp3310
sS'1583'
p3311
(S'simbaexpress'
p3312
g83
tp3313
sS'1580'
p3314
(S'tn-tl-r1'
p3315
g83
tp3316
sS'1584'
p3317
(S'tn-tl-fd2'
p3318
g83
tp3319
sS'1038'
p3320
(S'mtqp'
p3321
S' Message Tracking Query Protocol'
p3322
tp3323
sS'404'
p3324
(S'nced'
p3325
g83
tp3326
sS'509'
p3327
(S'snare'
p3328
g83
tp3329
sS'1032'
p3330
(S'iad3'
p3331
S' BBN IAD'
p3332
tp3333
sS'507'
p3334
(S'crs'
p3335
g83
tp3336
sS'1030'
p3337
(S'iad1'
p3338
S' BBN IAD'
p3339
tp3340
sS'505'
p3341
(S'mailbox-lm'
p3342
g83
tp3343
sS'502'
p3344
(S'asa-appl-proto'
p3345
g83
tp3346
sS'1037'
p3347
(S'ams'
p3348
S' AMS'
p3349
tp3350
sS'500'
p3351
(S'isakmp'
p3352
g83
tp3353
sS'402'
p3354
(S'genie'
p3355
S' Genie Protocol'
p3356
tp3357
sS'1212'
p3358
(S'lupa'
p3359
g83
tp3360
sS'1213'
p3361
(S'mpc-lifenet'
p3362
S' MPC LIFENET'
p3363
tp3364
sS'1210'
p3365
(S'eoss'
p3366
S' EOSS'
p3367
tp3368
sS'633'
p3369
(S'servstat'
p3370
S' Service Status update (Sterling Software)'
p3371
tp3372
sS'634'
p3373
(S'ginad'
p3374
g83
tp3375
sS'635'
p3376
(S'rlzdbase'
p3377
S' RLZ DBase'
p3378
tp3379
sS'636'
p3380
(S'ldapssl'
p3381
S' LDAP over SSL'
p3382
tp3383
sS'637'
p3384
(S'lanserver'
p3385
g83
tp3386
sS'638'
p3387
(S'mcns-sec'
p3388
g83
tp3389
sS'639'
p3390
(S'msdp'
p3391
S' MSDP'
p3392
tp3393
sS'1218'
p3394
(S'aeroflight-ads'
p3395
S' AeroFlight ADs'
p3396
tp3397
sS'1376'
p3398
(S'ibm-pps'
p3399
S' IBM Person to Person Software'
p3400
tp3401
sS'4376'
p3402
(S'bip'
p3403
S' BioAPI Interworking'
p3404
tp3405
sS'4374'
p3406
(S'psi-ptt'
p3407
S' PSI Push-to-Talk Protocol'
p3408
tp3409
sS'4375'
p3410
(S'tolteces'
p3411
S' Toltec EasyShare'
p3412
tp3413
sS'465'
p3414
(S'smtps'
p3415
S' smtp protocol over TLS/SSL (was ssmtp)'
p3416
tp3417
sS'2898'
p3418
(S'appliance-cfg'
p3419
S' APPLIANCE-CFG'
p3420
tp3421
sS'4242'
p3422
(S'vrml-multi-use'
p3423
S' VRML Multi User Systems'
p3424
tp3425
sS'1454'
p3426
(S'interhdl_elmd'
p3427
S' interHDL License Manager'
p3428
tp3429
sS'1455'
p3430
(S'esl-lm'
p3431
S' ESL License Manager'
p3432
tp3433
sS'1456'
p3434
(S'dca'
p3435
g83
tp3436
sS'1457'
p3437
(S'valisys-lm'
p3438
S' Valisys License Manager'
p3439
tp3440
sS'1102'
p3441
(S'adobeserver-1'
p3442
S' ADOBE SERVER 1'
p3443
tp3444
sS'1451'
p3445
(S'infoman'
p3446
S' IBM Information Management'
p3447
tp3448
sS'1100'
p3449
(S'mctp'
p3450
S' MCTP'
p3451
tp3452
sS'1453'
p3453
(S'genie-lm'
p3454
S' Genie License Manager'
p3455
tp3456
sS'1458'
p3457
(S'nrcabq-lm'
p3458
S' Nichols Research Corp.'
p3459
tp3460
sS'1459'
p3461
(S'proshare1'
p3462
S' Proshare Notebook Application'
p3463
tp3464
sS'464'
p3465
(S'kpasswd5'
p3466
S' Kerberos (v5)'
p3467
tp3468
sS'1109'
p3469
(S'kpop'
p3470
S' Pop with Kerberos'
p3471
tp3472
sS'4080'
p3473
(S'lorica-in'
p3474
S' Lorica inside facing'
p3475
tp3476
sS'3869'
p3477
(S'ovsam-mgmt'
p3478
S' hp OVSAM MgmtServer Disco'
p3479
tp3480
sS'3868'
p3481
(S'diameter'
p3482
S' DIAMETER'
p3483
tp3484
sS'4087'
p3485
(S'applusservice'
p3486
S' APplus Service'
p3487
tp3488
sS'3863'
p3489
(S'asap-tcp'
p3490
S' RSerPool ASAP (TCP)'
p3491
tp3492
sS'3860'
p3493
(S'sasp'
p3494
S' Server/Application State Protocol (SASP)'
p3495
tp3496
sS'22350'
p3497
(S'CodeMeter'
p3498
S' CodeMeter Standard'
p3499
tp3500
sS'8400'
p3501
(S'cvd'
p3502
g83
tp3503
sS'8401'
p3504
(S'sabarsd'
p3505
g83
tp3506
sS'8402'
p3507
(S'abarsd'
p3508
g83
tp3509
sS'8403'
p3510
(S'admind'
p3511
g83
tp3512
sS'5722'
p3513
(S'msdfsr'
p3514
S' Microsoft DFS Replication Service'
p3515
tp3516
sS'5723'
p3517
(S'omhs'
p3518
S' Operations Manager - Health Service'
p3519
tp3520
sS'5721'
p3521
(S'dtpt'
p3522
S' Desktop Passthru Service'
p3523
tp3524
sS'7777'
p3525
(S'cbt'
p3526
g83
tp3527
sS'7778'
p3528
(S'interwise'
p3529
S' Interwise'
p3530
tp3531
sS'3916'
p3532
(S'wysdmc'
p3533
S' WysDM Controller'
p3534
tp3535
sS'3915'
p3536
(S'agcat'
p3537
S' Auto-Graphics Cataloging'
p3538
tp3539
sS'3914'
p3540
(S'listcrt-port-2'
p3541
S' ListCREATOR Port 2'
p3542
tp3543
sS'3913'
p3544
(S'listcrt-port'
p3545
S' ListCREATOR Port'
p3546
tp3547
sS'3911'
p3548
(S'prnstatus'
p3549
S' Printer Status Port'
p3550
tp3551
sS'3919'
p3552
(S'hyperip'
p3553
S' HyperIP'
p3554
tp3555
sS'3918'
p3556
(S'pktcablemmcops'
p3557
S' PacketCableMultimediaCOPS'
p3558
tp3559
sS'8086'
p3560
(S'd-s-n'
p3561
S' Distributed SCADA Networking Rendezvous Port'
p3562
tp3563
sS'8087'
p3564
(S'simplifymedia'
p3565
S' Simplify Media SPP Protocol'
p3566
tp3567
sS'8080'
p3568
(S'http-proxy'
p3569
S' Common HTTP proxy/second web server port'
p3570
tp3571
sS'8081'
p3572
(S'blackice-icecap'
p3573
S' ICECap user console'
p3574
tp3575
sS'8082'
p3576
(S'blackice-alerts'
p3577
S' BlackIce Alerts sent to this port'
p3578
tp3579
sS'8083'
p3580
(S'us-srv'
p3581
S' Utilistor (Server)'
p3582
tp3583
sS'4158'
p3584
(S'stat-cc'
p3585
S' STAT Command Center'
p3586
tp3587
sS'8088'
p3588
(S'radan-http'
p3589
S' Radan HTTP'
p3590
tp3591
sS'13722'
p3592
(S'netbackup'
p3593
S' bpjava-msvc   client'
p3594
tp3595
sS'9929'
p3596
(S'nping-echo'
p3597
S' Nping echo server mode - http://nmap.org/book/nping-man-echo-mode.html - The port frequency is made up to keep it (barely) in top 1000 TCP'
p3598
tp3599
sS'13724'
p3600
(S'vnetd'
p3601
S' Veritas Network Utility'
p3602
tp3603
sS'216'
p3604
(S'atls'
p3605
S' Access Technology License Server'
p3606
tp3607
sS'217'
p3608
(S'dbase'
p3609
S' dBASE Unix'
p3610
tp3611
sS'214'
p3612
(S'vmpwscs'
p3613
g83
tp3614
sS'212'
p3615
(S'anet'
p3616
S' ATEXSSTR'
p3617
tp3618
sS'213'
p3619
(S'ipx'
p3620
g83
tp3621
sS'210'
p3622
(S'z'
p3623
S' wais, ANSI Z'
p3624
tp3625
sS'211'
p3626
(S'914c-g'
p3627
S' Texas Instruments 914C/G Terminal'
p3628
tp3629
sS'219'
p3630
(S'uarps'
p3631
S' Unisys ARPs'
p3632
tp3633
sS'7464'
p3634
(S'pythonds'
p3635
S' Python Documentation Server'
p3636
tp3637
sS'6085'
p3638
(S'konspire2b'
p3639
S' konspire2b p2p network'
p3640
tp3641
sS'5902'
p3642
(S'vnc-2'
p3643
S' Virtual Network Computer display 2'
p3644
tp3645
sS'5903'
p3646
(S'vnc-3'
p3647
S' Virtual Network Computer display 3'
p3648
tp3649
sS'5900'
p3650
(S'vnc'
p3651
S' Virtual Network Computer display 0'
p3652
tp3653
sS'5901'
p3654
(S'vnc-1'
p3655
S' Virtual Network Computer display 1'
p3656
tp3657
sS'7800'
p3658
(S'asr'
p3659
S' Apple Software Restore'
p3660
tp3661
sS'3483'
p3662
(S'slim-devices'
p3663
S' Slim Devices Protocol'
p3664
tp3665
sS'3485'
p3666
(S'celatalk'
p3667
S' CelaTalk'
p3668
tp3669
sS'3486'
p3670
(S'ifsf-hb-port'
p3671
S' IFSF Heartbeat Port'
p3672
tp3673
sS'4567'
p3674
(S'tram'
p3675
S' TRAM'
p3676
tp3677
sS'6050'
p3678
(S'arcserve'
p3679
S' ARCserve agent'
p3680
tp3681
sS'2550'
p3682
(S'ads'
p3683
S' ADS'
p3684
tp3685
sS'2551'
p3686
(S'isg-uda-server'
p3687
S' ISG UDA Server'
p3688
tp3689
sS'2557'
p3690
(S'nicetec-mgmt'
p3691
g83
tp3692
sS'2558'
p3693
(S'pclemultimedia'
p3694
S' PCLE Multi Media'
p3695
tp3696
sS'2394'
p3697
(S'ms-olap2'
p3698
S' SQL Server Downlevel OLAP Client Support'
p3699
tp3700
sS'2393'
p3701
(S'ms-olap1'
p3702
S' SQL Server Downlevel OLAP Client Support'
p3703
tp3704
sS'2391'
p3705
(S'3com-net-mgmt'
p3706
S' 3COM Net Management'
p3707
tp3708
sS'2399'
p3709
(S'fmpro-fdal'
p3710
S' FileMaker, Inc. - Data Access Layer'
p3711
tp3712
sS'5010'
p3713
(S'telelpathstart'
p3714
g83
tp3715
sS'5011'
p3716
(S'telelpathattack'
p3717
g83
tp3718
sS'4899'
p3719
(S'radmin'
p3720
S' Radmin (www.radmin.com) remote PC control software'
p3721
tp3722
sS'5013'
p3723
(S'fmpro-v6'
p3724
S' FileMaker, Inc. - Proprietary transport'
p3725
tp3726
sS'3003'
p3727
(S'cgms'
p3728
S' CGMS'
p3729
tp3730
sS'3002'
p3731
(S'exlm-agent'
p3732
S' EXLM Agent'
p3733
tp3734
sS'1858'
p3735
(S'privateark'
p3736
S' PrivateArk'
p3737
tp3738
sS'2806'
p3739
(S'cspuni'
p3740
g83
tp3741
sS'6065'
p3742
(S'winpharaoh'
p3743
S' WinPharaoh'
p3744
tp3745
sS'2170'
p3746
(S'eyetv'
p3747
S' EyeTV Server Port'
p3748
tp3749
sS'6060'
p3750
(S'x11'
p3751
S' X Window System'
p3752
tp3753
sS'6062'
p3754
(S'x11'
p3755
S' X Window System'
p3756
tp3757
sS'6063'
p3758
(S'x11'
p3759
S' X Window System'
p3760
tp3761
sS'2179'
p3762
(S'vmrdp'
p3763
S' Microsoft RDP for virtual machines'
p3764
tp3765
sS'911'
p3766
(S'xact-backup'
p3767
g83
tp3768
sS'910'
p3769
(S'kink'
p3770
S' Kerberized Internet Negotiation of Keys (KINK)'
p3771
tp3772
sS'913'
p3773
(S'apex-edge'
p3774
S' APEX endpoint-relay service'
p3775
tp3776
sS'912'
p3777
(S'apex-mesh'
p3778
S' APEX relay-relay service'
p3779
tp3780
sS'2604'
p3781
(S'ospfd'
p3782
S' OSPFd vty'
p3783
tp3784
sS'2605'
p3785
(S'bgpd'
p3786
S' BGPd vty'
p3787
tp3788
sS'2606'
p3789
(S'netmon'
p3790
S' Dell Netmon'
p3791
tp3792
sS'2607'
p3793
(S'connection'
p3794
S' Dell Connection'
p3795
tp3796
sS'2600'
p3797
(S'zebrasrv'
p3798
S' zebra service'
p3799
tp3800
sS'2601'
p3801
(S'zebra'
p3802
S' zebra vty'
p3803
tp3804
sS'2602'
p3805
(S'ripd'
p3806
S' RIPd vty'
p3807
tp3808
sS'5433'
p3809
(S'pyrrho'
p3810
S' Pyrrho DBMS'
p3811
tp3812
sS'2608'
p3813
(S'wag-service'
p3814
S' Wag Service'
p3815
tp3816
sS'3261'
p3817
(S'winshadow'
p3818
S' winShadow'
p3819
tp3820
sS'3260'
p3821
(S'iscsi'
p3822
S' iSCSI'
p3823
tp3824
sS'3263'
p3825
(S'ecolor-imager'
p3826
S' E-Color Enterprise Imager'
p3827
tp3828
sS'5431'
p3829
(S'park-agent'
p3830
g83
tp3831
sS'3264'
p3832
(S'ccmail'
p3833
S' cc:mail/lotus'
p3834
tp3835
sS'1935'
p3836
(S'rtmp'
p3837
S' Macromedia FlasComm Server'
p3838
tp3839
sS'3269'
p3840
(S'globalcatLDAPssl'
p3841
S' Global Catalog LDAP over ssl'
p3842
tp3843
sS'3268'
p3844
(S'globalcatLDAP'
p3845
S' Global Catalog LDAP'
p3846
tp3847
sS'3369'
p3848
(S'satvid-datalnk'
p3849
S' Satellite Video Data Link'
p3850
tp3851
sS'847'
p3852
(S'dhcp-failover2'
p3853
S' dhcp-failover 2'
p3854
tp3855
sS'8899'
p3856
(S'ospf-lite'
p3857
g83
tp3858
sS'8892'
p3859
(S'seosload'
p3860
S' From the new Computer Associates eTrust ACX'
p3861
tp3862
sS'848'
p3863
(S'gdoi'
p3864
S' GDOI'
p3865
tp3866
sS'3367'
p3867
(S'satvid-datalnk'
p3868
S' Satellite Video Data Link'
p3869
tp3870
sS'7099'
p3871
(S'lazy-ptop'
p3872
g83
tp3873
sS'7010'
p3874
(S'ups-onlinet'
p3875
S' onlinet uninterruptable power supplies'
p3876
tp3877
sS'1730'
p3878
(S'roketz'
p3879
g83
tp3880
sS'5232'
p3881
(S'sgi-dgl'
p3882
S' SGI Distributed Graphics'
p3883
tp3884
sS'1735'
p3885
(S'privatechat'
p3886
S' PrivateChat'
p3887
tp3888
sS'5235'
p3889
(S'galaxy-network'
p3890
S' Galaxy Network Service'
p3891
tp3892
sS'1736'
p3893
(S'street-stream'
p3894
g83
tp3895
sS'1039'
p3896
(S'sbl'
p3897
S' Streamlined Blackhole'
p3898
tp3899
sS'753'
p3900
(S'rrh'
p3901
g83
tp3902
sS'752'
p3903
(S'qrh'
p3904
g83
tp3905
sS'751'
p3906
(S'kerberos_master'
p3907
S" Kerberos `kadmin' (v4)"
p3908
tp3909
sS'750'
p3910
(S'kerberos'
p3911
S' kdc Kerberos (v4)'
p3912
tp3913
sS'754'
p3914
(S'krb_prop'
p3915
S' kerberos/v5 server propagation'
p3916
tp3917
sS'759'
p3918
(S'con'
p3919
g83
tp3920
sS'758'
p3921
(S'nlogin'
p3922
g83
tp3923
sS'3071'
p3924
(S'csd-mgmt-port'
p3925
S' ContinuStor Manager Port'
p3926
tp3927
sS'2958'
p3928
(S'jmact6'
p3929
S' JAMCT6'
p3930
tp3931
sS'1592'
p3932
(S'commonspace'
p3933
g83
tp3934
sS'2957'
p3935
(S'jmact5'
p3936
S' JAMCT5'
p3937
tp3938
sS'1598'
p3939
(S'picknfs'
p3940
g83
tp3941
sS'6888'
p3942
(S'muse'
p3943
S' MUSE'
p3944
tp3945
sS'1025'
p3946
(S'NFS-or-IIS'
p3947
S' IIS, NFS, or listener RFS remote_file_sharing'
p3948
tp3949
sS'1024'
p3950
(S'kdm'
p3951
S' K Display Manager (KDE version of xdm)'
p3952
tp3953
sS'1027'
p3954
(S'IIS'
p3955
g83
tp3956
sS'1031'
p3957
(S'iad2'
p3958
S' BBN IAD'
p3959
tp3960
sS'1021'
p3961
(S'exp1'
p3962
S' RFC3692-style Experiment 1 (*)    [RFC4727]'
p3963
tp3964
sS'3784'
p3965
(S'bfd-control'
p3966
S' BFD Control Protocol'
p3967
tp3968
sS'1023'
p3969
(S'netvenuechat'
p3970
S' Nortel NetVenue Notification, Chat, Intercom'
p3971
tp3972
sS'1022'
p3973
(S'exp2'
p3974
S' RFC3692-style Experiment 2 (*)    [RFC4727]'
p3975
tp3976
sS'1036'
p3977
(S'nsstp'
p3978
S' Nebula Secure Segment Transfer Protocol'
p3979
tp3980
sS'1029'
p3981
(S'ms-lsa'
p3982
g83
tp3983
sS'6141'
p3984
(S'meta-corp'
p3985
S' Meta Corporation License Manager'
p3986
tp3987
sS'1034'
p3988
(S'zincite-a'
p3989
S' Zincite.A backdoor'
p3990
tp3991
sS'6147'
p3992
(S'montage-lm'
p3993
S' Montage License Manager'
p3994
tp3995
sS'501'
p3996
(S'stmf'
p3997
g83
tp3998
sS'605'
p3999
(S'soap-beep'
p4000
S' SOAP over BEEP'
p4001
tp4002
sS'630'
p4003
(S'rda'
p4004
S' RDA'
p4005
tp4006
sS'607'
p4007
(S'nqs'
p4008
g83
tp4009
sS'606'
p4010
(S'urm'
p4011
S' Cray Unified Resource Manager'
p4012
tp4013
sS'1209'
p4014
(S'ipcd3'
p4015
S' IPCD3'
p4016
tp4017
sS'1208'
p4018
(S'seagull-ais'
p4019
S' SEAGULL AIS'
p4020
tp4021
sS'603'
p4022
(S'mnotes'
p4023
S' CommonTime Mnotes PDA Synchronization'
p4024
tp4025
sS'631'
p4026
(S'ipp'
p4027
S' Internet Printing Protocol -- for one implementation see http://www.cups.org (Common UNIX Printing System)'
p4028
tp4029
sS'1204'
p4030
(S'ssslog-mgr'
p4031
S' Log Request Listener'
p4032
tp4033
sS'1207'
p4034
(S'metasage'
p4035
S' MetaSage'
p4036
tp4037
sS'609'
p4038
(S'npmp-trap'
p4039
g83
tp4040
sS'1200'
p4041
(S'scol'
p4042
S' SCOL'
p4043
tp4044
sS'8076'
p4045
(S'slnp'
p4046
S' SLNP (Simple Library Network Protocol) by Sisis Informationssysteme GmbH'
p4047
tp4048
sS'1211'
p4049
(S'groove-dpp'
p4050
S' Groove DPP'
p4051
tp4052
sS'1216'
p4053
(S'etebac5'
p4054
S' ETEBAC 5'
p4055
tp4056
sS'1217'
p4057
(S'hpss-ndapi'
p4058
S' HPSS NonDCE Gateway'
p4059
tp4060
sS'1214'
p4061
(S'fasttrack'
p4062
S' Kazaa File Sharing'
p4063
tp4064
sS'1215'
p4065
(S'scanstat-1'
p4066
S' scanSTAT '
p4067
tp4068
sS'3102'
p4069
(S'slslavemon'
p4070
S' SoftlinK Slave Mon Port'
p4071
tp4072
sS'3103'
p4073
(S'autocuesmi'
p4074
S' Autocue SMI Protocol'
p4075
tp4076
sS'1111'
p4077
(S'lmsocialserver'
p4078
S' LM Social Server'
p4079
tp4080
sS'1110'
p4081
(S'nfsd-status'
p4082
S' Cluster status info'
p4083
tp4084
sS'1445'
p4085
(S'proxima-lm'
p4086
S' Proxima License Manager'
p4087
tp4088
sS'1444'
p4089
(S'marcam-lm'
p4090
S' Marcam License Management'
p4091
tp4092
sS'1443'
p4093
(S'ies-lm'
p4094
S' Integrated Engineering Software'
p4095
tp4096
sS'1442'
p4097
(S'cadis-2'
p4098
S' Cadis License Management'
p4099
tp4100
sS'1117'
p4101
(S'ardus-mtrns'
p4102
S' ARDUS Multicast Transfer'
p4103
tp4104
sS'1116'
p4105
(S'ardus-cntl'
p4106
S' ARDUS Control'
p4107
tp4108
sS'1119'
p4109
(S'bnetgame'
p4110
S' Battle.net Chat/Game Protocol'
p4111
tp4112
sS'1118'
p4113
(S'sacred'
p4114
S' SACRED'
p4115
tp4116
sS'4279'
p4117
(S'vrml-multi-use'
p4118
S' VRML Multi User Systems'
p4119
tp4120
sS'1449'
p4121
(S'peport'
p4122
g83
tp4123
sS'1448'
p4124
(S'oc-lm'
p4125
S' OpenConnect License Manager'
p4126
tp4127
sS'13782'
p4128
(S'netbackup'
p4129
S' bpcd          client'
p4130
tp4131
sS'13783'
p4132
(S'netbackup'
p4133
S' vopied        client'
p4134
tp4135
sS'1350'
p4136
(S'editbench'
p4137
S' Registration Network Protocol'
p4138
tp4139
sS'4096'
p4140
(S'bre'
p4141
S' BRE (Bridge Relay Element)'
p4142
tp4143
sS'1356'
p4144
(S'cuillamartin'
p4145
S' CuillaMartin Company'
p4146
tp4147
sS'5730'
p4148
(S'unieng'
p4149
S" Steltor's calendar access"
p4150
tp4151
sS'487'
p4152
(S'saft'
p4153
S' saft Simple Asynchronous File Transfer'
p4154
tp4155
sS'486'
p4156
(S'sstats'
p4157
g83
tp4158
sS'485'
p4159
(S'powerburst'
p4160
S' Air Soft Power Burst'
p4161
tp4162
sS'1354'
p4163
(S'rightbrain'
p4164
S' RightBrain Software'
p4165
tp4166
sS'9694'
p4167
(S'client-wakeup'
p4168
S' T-Mobile Client Wakeup Message'
p4169
tp4170
sS'481'
p4171
(S'dvs'
p4172
g83
tp4173
sS'480'
p4174
(S'loadsrv'
p4175
g83
tp4176
sS'6789'
p4177
(S'ibm-db2-admin'
p4178
S' IBM DB2'
p4179
tp4180
sS'7741'
p4181
(S'scriptview'
p4182
S' ScriptView Network'
p4183
tp4184
sS'7744'
p4185
(S'raqmon-pdu'
p4186
S' RAQMON PDU'
p4187
tp4188
sS'6788'
p4189
(S'smc-http'
p4190
S' SMC-HTTP'
p4191
tp4192
sS'3922'
p4193
(S'sor-update'
p4194
S' Soronti Update Port'
p4195
tp4196
sS'3923'
p4197
(S'symb-sb-port'
p4198
S' Symbian Service Broker'
p4199
tp4200
sS'3920'
p4201
(S'exasoftport1'
p4202
S' Exasoft IP Port'
p4203
tp4204
sS'3928'
p4205
(S'netboot-pxe'
p4206
S' PXE NetBoot Manager'
p4207
tp4208
sS'3929'
p4209
(S'smauth-port'
p4210
S' AMS Port'
p4211
tp4212
sS'5301'
p4213
(S'hacl-gs'
p4214
S' HA cluster general services'
p4215
tp4216
sS'8097'
p4217
(S'sac'
p4218
S' SAC Port Id'
p4219
tp4220
sS'4144'
p4221
(S'wincim'
p4222
S' pc windows compuserve.com protocol'
p4223
tp4224
sS'4147'
p4225
(S'vrxpservman'
p4226
S' Multum Service Manager'
p4227
tp4228
sS'4141'
p4229
(S'oirtgsvc'
p4230
S' Workflow Server'
p4231
tp4232
sS'4143'
p4233
(S'oidsr'
p4234
S' Document Replication'
p4235
tp4236
sS'3856'
p4237
(S'informer'
p4238
S' INFORMER'
p4239
tp4240
sS'3852'
p4241
(S'sse-app-config'
p4242
S' SSE App Configuration'
p4243
tp4244
sS'3853'
p4245
(S'sscan'
p4246
S' SONY scanning protocol'
p4247
tp4248
sS'3850'
p4249
(S'qtms-bootstrap'
p4250
S' QTMS Bootstrap Protocol'
p4251
tp4252
sS'3851'
p4253
(S'spectraport'
p4254
S' SpectraTalk Port'
p4255
tp4256
sS'3859'
p4257
(S'nav-port'
p4258
S' Navini Port'
p4259
tp4260
sS'42510'
p4261
(S'caerpc'
p4262
S' CA eTrust RPC'
p4263
tp4264
sS'5911'
p4265
(S'cpdlc'
p4266
S' Controller Pilot Data Link Communication'
p4267
tp4268
sS'5910'
p4269
(S'cm'
p4270
S' Context Management'
p4271
tp4272
sS'5912'
p4273
(S'fis'
p4274
S' Flight Information Services'
p4275
tp4276
sS'199'
p4277
(S'smux'
p4278
S' SNMP Unix Multiplexer'
p4279
tp4280
sS'194'
p4281
(S'irc'
p4282
S' Internet Relay Chat'
p4283
tp4284
sS'196'
p4285
(S'dn6-smm-red'
p4286
S' DNSIX Session Mgt Module Audit Redir'
p4287
tp4288
sS'191'
p4289
(S'prospero'
p4290
S' Prospero Directory Service'
p4291
tp4292
sS'190'
p4293
(S'gacp'
p4294
S' Gateway Access Control Protocol'
p4295
tp4296
sS'193'
p4297
(S'srmp'
p4298
S' Spider Remote Monitoring Protocol'
p4299
tp4300
sS'192'
p4301
(S'osu-nms'
p4302
S' OSU Network Monitoring System'
p4303
tp4304
sS'4559'
p4305
(S'hylafax'
p4306
S' HylaFAX client-server protocol'
p4307
tp4308
sS'3672'
p4309
(S'lispworks-orb'
p4310
S' LispWorks ORB'
p4311
tp4312
sS'4557'
p4313
(S'fax'
p4314
S' FlexFax FAX transmission service'
p4315
tp4316
sS'3670'
p4317
(S'smile'
p4318
S' SMILE TCP/UDP Interface'
p4319
tp4320
sS'4555'
p4321
(S'rsip'
p4322
S' RSIP Port'
p4323
tp4324
sS'6389'
p4325
(S'clariion-evr01'
p4326
g83
tp4327
sS'4550'
p4328
(S'gds-adppiw-db'
p4329
S' Perman I Interbase Server'
p4330
tp4331
sS'1106'
p4332
(S'isoipsigport-1'
p4333
S' ISOIPSIGPORT-1'
p4334
tp4335
sS'1107'
p4336
(S'isoipsigport-2'
p4337
S' ISOIPSIGPORT-2'
p4338
tp4339
sS'1104'
p4340
(S'xrl'
p4341
S' XRL'
p4342
tp4343
sS'2381'
p4344
(S'compaq-https'
p4345
S' Compaq HTTPS'
p4346
tp4347
sS'2383'
p4348
(S'ms-olap4'
p4349
S' MS OLAP 4'
p4350
tp4351
sS'2382'
p4352
(S'ms-olap3'
p4353
g83
tp4354
sS'1103'
p4355
(S'xaudio'
p4356
S' Xaserver\t# X Audio Server'
p4357
tp4358
sS'3580'
p4359
(S'nati-svrloc'
p4360
S' NATI-ServiceLocator'
p4361
tp4362
sS'5002'
p4363
(S'rfe'
p4364
S' Radio Free Ethernet'
p4365
tp4366
sS'5001'
p4367
(S'commplex-link'
p4368
g83
tp4369
sS'5000'
p4370
(S'upnp'
p4371
S' Universal PnP, also Free Internet Chess Server'
p4372
tp4373
sS'3586'
p4374
(S'emprise-lsc'
p4375
S' License Server Console'
p4376
tp4377
sS'5004'
p4378
(S'avt-profile-1'
p4379
S' RTP media data [RFC 3551][RFC 4571]'
p4380
tp4381
sS'5009'
p4382
(S'airport-admin'
p4383
S' Apple AirPort WAP Administration'
p4384
tp4385
sS'1101'
p4386
(S'pt2-discover'
p4387
S' PT2-DISCOVER'
p4388
tp4389
sS'2766'
p4390
(S'listen'
p4391
S' System V listener port'
p4392
tp4393
sS'7900'
p4394
(S'mevent'
p4395
S' Multicast Event'
p4396
tp4397
sS'21201'
p4398
(S'memcachedb'
p4399
g83
tp4400
sS'902'
p4401
(S'iss-realsecure'
p4402
S' ISS RealSecure Sensor'
p4403
tp4404
sS'903'
p4405
(S'iss-console-mgr'
p4406
S' ISS Console Manager'
p4407
tp4408
sS'900'
p4409
(S'omginitialrefs'
p4410
S' OMG Initial Refs'
p4411
tp4412
sS'901'
p4413
(S'samba-swat'
p4414
S' Samba SWAT tool.  Also used by ISS RealSecure.'
p4415
tp4416
sS'420'
p4417
(S'smpte'
p4418
g83
tp4419
sS'1840'
p4420
(S'netopia-vo2'
p4421
g83
tp4422
sS'1108'
p4423
(S'ratio-adp'
p4424
g83
tp4425
sS'2161'
p4426
(S'apc-agent'
p4427
S' American Power Conversion'
p4428
tp4429
sS'2160'
p4430
(S'apc-2160'
p4431
S' APC 2160'
p4432
tp4433
sS'7345'
p4434
(S'swx'
p4435
S' The Swiss Exchange'
p4436
tp4437
sS'3299'
p4438
(S'saprouter'
p4439
S' SAProuter'
p4440
tp4441
sS'5137'
p4442
(S'ctsd'
p4443
S' MyCTS server port'
p4444
tp4445
sS'5133'
p4446
(S'nbt-pc'
p4447
S' Policy Commander'
p4448
tp4449
sS'3291'
p4450
(S'sah-lm'
p4451
S' S A Holditch & Associates - LM'
p4452
tp4453
sS'3292'
p4454
(S'meetingmaker'
p4455
S' Meeting maker time management software'
p4456
tp4457
sS'1901'
p4458
(S'fjicl-tep-a'
p4459
S' Fujitsu ICL Terminal Emulator Program A'
p4460
tp4461
sS'3456'
p4462
(S'vat'
p4463
S' VAT default data'
p4464
tp4465
sS'422'
p4466
(S'ariel3'
p4467
g83
tp4468
sS'425'
p4469
(S'icad-el'
p4470
g83
tp4471
sS'7009'
p4472
(S'afs3-rmtsys'
p4473
S' remote cache manager service'
p4474
tp4475
sS'7008'
p4476
(S'afs3-update'
p4477
S' server-to-server updater'
p4478
tp4479
sS'20005'
p4480
(S'btx'
p4481
S" xcept4 (Interacts with German Telekom's CEPT videotext service)"
p4482
tp4483
sS'20002'
p4484
(S'commtact-http'
p4485
S' Commtact HTTP'
p4486
tp4487
sS'20001'
p4488
(S'microsan'
p4489
S' MicroSAN'
p4490
tp4491
sS'20000'
p4492
(S'dnp'
p4493
S' DNP'
p4494
tp4495
sS'7001'
p4496
(S'afs3-callback'
p4497
S' callbacks to cache managers'
p4498
tp4499
sS'7000'
p4500
(S'afs3-fileserver'
p4501
S' file server itself, msdos'
p4502
tp4503
sS'7003'
p4504
(S'afs3-vlserver'
p4505
S' volume location database'
p4506
tp4507
sS'7002'
p4508
(S'afs3-prserver'
p4509
S' users & groups database'
p4510
tp4511
sS'7005'
p4512
(S'afs3-volser'
p4513
S' volume managment server'
p4514
tp4515
sS'7004'
p4516
(S'afs3-kaserver'
p4517
S' AFS/Kerberos authentication service'
p4518
tp4519
sS'7007'
p4520
(S'afs3-bos'
p4521
S' basic overseer process'
p4522
tp4523
sS'7006'
p4524
(S'afs3-errors'
p4525
S' error interpretation service'
p4526
tp4527
sS'5223'
p4528
(S'hpvirtgrp'
p4529
S' HP Virtual Machine Group Management'
p4530
tp4531
sS'5222'
p4532
(S'xmpp-client'
p4533
S' XMPP Client Connection'
p4534
tp4535
sS'5226'
p4536
(S'hp-status'
p4537
S' HP Status'
p4538
tp4539
sS'5225'
p4540
(S'hp-server'
p4541
S' HP Server'
p4542
tp4543
sS'8900'
p4544
(S'jmb-cds1'
p4545
S' JMB-CDS 1'
p4546
tp4547
sS'740'
p4548
(S'netcp'
p4549
S' NETscout Control Protocol'
p4550
tp4551
sS'741'
p4552
(S'netgw'
p4553
g83
tp4554
sS'742'
p4555
(S'netrcs'
p4556
S' Network based Rev. Cont. Sys.'
p4557
tp4558
sS'744'
p4559
(S'flexlm'
p4560
S' Flexible License Manager'
p4561
tp4562
sS'747'
p4563
(S'fujitsu-dev'
p4564
S' Fujitsu Device Control'
p4565
tp4566
sS'748'
p4567
(S'ris-cm'
p4568
S' Russell Info Sci Calendar Manager'
p4569
tp4570
sS'749'
p4571
(S'kerberos-adm'
p4572
S' Kerberos 5 admin/changepw'
p4573
tp4574
sS'3063'
p4575
(S'ncadg-ip-udp'
p4576
g83
tp4577
sS'3062'
p4578
(S'ncacn-ip-tcp'
p4579
g83
tp4580
sS'3064'
p4581
(S'dnet-tstproxy'
p4582
S' distributed.net (a closed source crypto-cracking project) proxy test port'
p4583
tp4584
sS'1050'
p4585
(S'java-or-OTGfileshare'
p4586
S' J2EE nameserver, also OTG, also called Disk/Application extender. Could also be MiniCommand backdoor OTGlicenseserv'
p4587
tp4588
sS'1051'
p4589
(S'optima-vnet'
p4590
g83
tp4591
sS'1052'
p4592
(S'ddt'
p4593
S' Dynamic DNS tools'
p4594
tp4595
sS'1053'
p4596
(S'remote-as'
p4597
S' Remote Assistant (RA)'
p4598
tp4599
sS'1054'
p4600
(S'brvread'
p4601
S' BRVREAD'
p4602
tp4603
sS'1055'
p4604
(S'ansyslmd'
p4605
g83
tp4606
sS'1056'
p4607
(S'vfo'
p4608
S' VFO'
p4609
tp4610
sS'1057'
p4611
(S'startron'
p4612
S' STARTRON'
p4613
tp4614
sS'1058'
p4615
(S'nim'
p4616
g83
tp4617
sS'1059'
p4618
(S'nimreg'
p4619
g83
tp4620
sS'38037'
p4621
(S'landesk-cba'
p4622
g83
tp4623
sS'1694'
p4624
(S'rrimwm'
p4625
g83
tp4626
sS'1691'
p4627
(S'empire-empuma'
p4628
g83
tp4629
sS'715'
p4630
(S'iris-lwz'
p4631
S' IRIS-LWZ'
p4632
tp4633
sS'1699'
p4634
(S'rsvp-encap-2'
p4635
S' RSVP-ENCAPSULATION-2'
p4636
tp4637
sS'1279'
p4638
(S'dellwebadmin-2'
p4639
S' Dell Web Admin 2'
p4640
tp4641
sS'618'
p4642
(S'dei-icda'
p4643
S' DEI-ICDA'
p4644
tp4645
sS'619'
p4646
(S'compaq-evm'
p4647
S' Compaq EVM'
p4648
tp4649
sS'612'
p4650
(S'hmmp-ind'
p4651
S' HMMP Indication'
p4652
tp4653
sS'613'
p4654
(S'hmmp-op'
p4655
S' HMMP Operation'
p4656
tp4657
sS'610'
p4658
(S'npmp-local'
p4659
g83
tp4660
sS'611'
p4661
(S'npmp-gui'
p4662
g83
tp4663
sS'616'
p4664
(S'sco-sysmgr'
p4665
S' SCO System Administration Server'
p4666
tp4667
sS'617'
p4668
(S'sco-dtmgr'
p4669
S' SCO Desktop Administration Server or Arkeia (www.arkeia.com) backup software'
p4670
tp4671
sS'1276'
p4672
(S'ivmanager'
p4673
g83
tp4674
sS'615'
p4675
(S'sco-inetmgr'
p4676
S' Internet Configuration Manager'
p4677
tp4678
sS'5423'
p4679
(S'virtualuser'
p4680
S' VIRTUALUSER'
p4681
tp4682
sS'3119'
p4683
(S'd2000kernel'
p4684
S' D2000 Kernel Port'
p4685
tp4686
sS'3118'
p4687
(S'pkagent'
p4688
S' PKAgent'
p4689
tp4690
sS'9400'
p4691
(S'sec-t4net-srv'
p4692
S' Samsung Twain for Network Server'
p4693
tp4694
sS'1472'
p4695
(S'csdm'
p4696
g83
tp4697
sS'1473'
p4698
(S'openmath'
p4699
g83
tp4700
sS'1470'
p4701
(S'uaiact'
p4702
S' Universal Analytics'
p4703
tp4704
sS'1476'
p4705
(S'clvm-cfg'
p4706
g83
tp4707
sS'1474'
p4708
(S'telefinder'
p4709
g83
tp4710
sS'1475'
p4711
(S'taligent-lm'
p4712
S' Taligent License Manager'
p4713
tp4714
sS'1479'
p4715
(S'dberegister'
p4716
g83
tp4717
sS'1305'
p4718
(S'pe-mike'
p4719
g83
tp4720
sS'1306'
p4721
(S're-conn-proto'
p4722
S' RE-Conn-Proto'
p4723
tp4724
sS'1307'
p4725
(S'pacmand'
p4726
S' Pacmand'
p4727
tp4728
sS'1300'
p4729
(S'h323hostcallsc'
p4730
S' H323 Host Call Secure'
p4731
tp4732
sS'1301'
p4733
(S'ci3-software-1'
p4734
S' CI3-Software-1'
p4735
tp4736
sS'1302'
p4737
(S'ci3-software-2'
p4738
S' CI3-Software-2'
p4739
tp4740
sS'1303'
p4741
(S'sftsrv'
p4742
g83
tp4743
sS'3334'
p4744
(S'directv-web'
p4745
S' Direct TV Webcasting'
p4746
tp4747
sS'1308'
p4748
(S'odsi'
p4749
S' Optical Domain Service Interconnect (ODSI)'
p4750
tp4751
sS'1309'
p4752
(S'jtag-server'
p4753
S' JTAG server'
p4754
tp4755
sS'41795'
p4756
(S'crestron-ctp'
p4757
S' Crestron Terminal Port'
p4758
tp4759
sS'54320'
p4760
(S'bo2k'
p4761
S' Back Orifice 2K Default Port'
p4762
tp4763
sS'4224'
p4764
(S'xtell'
p4765
S' Xtell messenging server'
p4766
tp4767
sS'496'
p4768
(S'pim-rp-disc'
p4769
g83
tp4770
sS'497'
p4771
(S'retrospect'
p4772
g83
tp4773
sS'4220'
p4774
(S'vrml-multi-use'
p4775
S' VRML Multi User Systems'
p4776
tp4777
sS'491'
p4778
(S'go-login'
p4779
g83
tp4780
sS'492'
p4781
(S'ticf-1'
p4782
S' Transport Independent Convergence for FNA'
p4783
tp4784
sS'493'
p4785
(S'ticf-2'
p4786
S' Transport Independent Convergence for FNA'
p4787
tp4788
sS'24'
p4789
(S'priv-mail'
p4790
S' any private mail system'
p4791
tp4792
sS'25'
p4793
(S'smtp'
p4794
S' Simple Mail Transfer'
p4795
tp4796
sS'26'
p4797
(S'rsftp'
p4798
S' RSFTP'
p4799
tp4800
sS'27'
p4801
(S'nsw-fe'
p4802
S' NSW User System FE'
p4803
tp4804
sS'20'
p4805
(S'ftp-data'
p4806
S' File Transfer [Default Data]'
p4807
tp4808
sS'21'
p4809
(S'ftp'
p4810
S' File Transfer [Control]'
p4811
tp4812
sS'22'
p4813
(S'ssh'
p4814
S' Secure Shell Login'
p4815
tp4816
sS'23'
p4817
(S'telnet'
p4818
g83
tp4819
sS'7597'
p4820
(S'qaz'
p4821
S' Quaz trojan worm'
p4822
tp4823
sS'29'
p4824
(S'msg-icp'
p4825
S' MSG ICP'
p4826
tp4827
sS'5308'
p4828
(S'cfengine'
p4829
g83
tp4830
sS'3935'
p4831
(S'sdp-portmapper'
p4832
S' SDP Port Mapper Protocol'
p4833
tp4834
sS'3937'
p4835
(S'dvbservdsc'
p4836
S' DVB Service Discovery'
p4837
tp4838
sS'3936'
p4839
(S'mailprox'
p4840
S' Mailprox'
p4841
tp4842
sS'3931'
p4843
(S'msr-plugin-port'
p4844
S' MSR Plugin Port'
p4845
tp4846
sS'3930'
p4847
(S'syam-webserver'
p4848
S' Syam Web Server Port'
p4849
tp4850
sS'9900'
p4851
(S'iua'
p4852
S' IUA'
p4853
tp4854
sS'4132'
p4855
(S'nuts_dem'
p4856
S' NUTS Daemon'
p4857
tp4858
sS'4133'
p4859
(S'nuts_bootp'
p4860
S' NUTS Bootp Server'
p4861
tp4862
sS'4135'
p4863
(S'cl-db-attach'
p4864
S' Classic Line Database Server Attach'
p4865
tp4866
sS'9909'
p4867
(S'domaintime'
p4868
g83
tp4869
sS'5300'
p4870
(S'hacl-hb'
p4871
S' HA cluster heartbeat'
p4872
tp4873
sS'3842'
p4874
(S'nhci'
p4875
S' NHCI status port'
p4876
tp4877
sS'3847'
p4878
(S'msfw-control'
p4879
S' MS Firewall Control'
p4880
tp4881
sS'3846'
p4882
(S'an-pcp'
p4883
S' Astare Network PCP'
p4884
tp4885
sS'3849'
p4886
(S'spw-dnspreload'
p4887
S' SPACEWAY DNS Preload'
p4888
tp4889
sS'3848'
p4890
(S'item'
p4891
S' IT Environmental Monitor'
p4892
tp4893
sS'8500'
p4894
(S'fmtp'
p4895
S' Flight Message Transfer Protocol'
p4896
tp4897
sS'5302'
p4898
(S'hacl-cfg'
p4899
S' HA cluster configuration'
p4900
tp4901
sS'32769'
p4902
(S'filenet-rpc'
p4903
S' Filenet RPC'
p4904
tp4905
sS'32768'
p4906
(S'filenet-tms'
p4907
S' Filenet TMS'
p4908
tp4909
sS'5303'
p4910
(S'hacl-probe'
p4911
S' HA cluster probing'
p4912
tp4913
sS'32767'
p4914
(S'filenet-powsrm'
p4915
S' FileNet BPM WS-ReliableMessaging Client'
p4916
tp4917
sS'4045'
p4918
(S'lockd'
p4919
g83
tp4920
sS'6668'
p4921
(S'irc'
p4922
S' Internet Relay Chat'
p4923
tp4924
sS'6669'
p4925
(S'irc'
p4926
S' Internet Relay Chat'
p4927
tp4928
sS'4040'
p4929
(S'yo-main'
p4930
S' Yo.net main service'
p4931
tp4932
sS'6662'
p4933
(S'radmind'
p4934
S' Radmind protocol (deprecated)'
p4935
tp4936
sS'6666'
p4937
(S'irc'
p4938
S' internet relay chat server'
p4939
tp4940
sS'6667'
p4941
(S'irc'
p4942
S' Internet Relay Chat'
p4943
tp4944
sS'6665'
p4945
(S'irc'
p4946
S' Internet Relay Chat'
p4947
tp4948
sS'5968'
p4949
(S'mppolicy-v5'
p4950
g83
tp4951
sS'5969'
p4952
(S'mppolicy-mgr'
p4953
g83
tp4954
sS'7'
p4955
(S'echo'
p4956
g83
tp4957
sS'5963'
p4958
(S'indy'
p4959
S' Indy Application Server'
p4960
tp4961
sS'2288'
p4962
(S'netml'
p4963
S' NETML'
p4964
tp4965
sS'3663'
p4966
(S'dtp'
p4967
S' DIRECWAY Tunnel Protocol'
p4968
tp4969
sS'2280'
p4970
(S'lnvpoller'
p4971
S' LNVPOLLER'
p4972
tp4973
sS'3669'
p4974
(S'casanswmgmt'
p4975
S' CA SAN Switch Management'
p4976
tp4977
sS'4545'
p4978
(S'worldscores'
p4979
S' WorldScores'
p4980
tp4981
sS'17300'
p4982
(S'kuang2'
p4983
S' Kuang2 backdoor'
p4984
tp4985
sS'601'
p4986
(S'syslog-conn'
p4987
S' Reliable Syslog Service'
p4988
tp4989
sS'2371'
p4990
(S'worldwire'
p4991
S' Compaq WorldWire Port'
p4992
tp4993
sS'2372'
p4994
(S'lanmessenger'
p4995
S' LanMessenger'
p4996
tp4997
sS'1087'
p4998
(S'cplscrambler-in'
p4999
S' CPL Scrambler Internal'
p5000
tp5001
sS'4328'
p5002
(S'jaxer-manager'
p5003
S' Jaxer Manager Command Protocol'
p5004
tp5005
sS'3599'
p5006
(S'quasar-server'
p5007
S' Quasar Accounting Server'
p5008
tp5009
sS'5580'
p5010
(S'tmosms0'
p5011
S' T-Mobile SMS Protocol Message 0'
p5012
tp5013
sS'2598'
p5014
(S'citriximaclient'
p5015
S' Citrix MA Client'
p5016
tp5017
sS'1085'
p5018
(S'webobjects'
p5019
S' Web Objects'
p5020
tp5021
sS'5030'
p5022
(S'surfpass'
p5023
S' SurfPass'
p5024
tp5025
sS'1875'
p5026
(S'westell-stats'
p5027
S' westell stats'
p5028
tp5029
sS'4430'
p5030
(S'rsqlserver'
p5031
S' REAL SQL Server'
p5032
tp5033
sS'1871'
p5034
(S'canocentral0'
p5035
S' Cano Central 0'
p5036
tp5037
sS'7913'
p5038
(S'qo-secure'
p5039
S' QuickObjects secure port'
p5040
tp5041
sS'975'
p5042
(S'securenetpro-sensor'
p5043
g83
tp5044
sS'1080'
p5045
(S'socks'
p5046
g83
tp5047
sS'4949'
p5048
(S'munin'
p5049
S' Munin Graphing Framework'
p5050
tp5051
sS'182'
p5052
(S'audit'
p5053
S' Unisys Audit SITP'
p5054
tp5055
sS'2119'
p5056
(S'gsigatekeeper'
p5057
S' GSIGATEKEEPER'
p5058
tp5059
sS'180'
p5060
(S'ris'
p5061
S' Intergraph'
p5062
tp5063
sS'181'
p5064
(S'unify'
p5065
g83
tp5066
sS'184'
p5067
(S'ocserver'
p5068
g83
tp5069
sS'185'
p5070
(S'remote-kis'
p5071
g83
tp5072
sS'2111'
p5073
(S'kx'
p5074
S' X over kerberos'
p5075
tp5076
sS'2112'
p5077
(S'kip'
p5078
S' IP over kerberos'
p5079
tp5080
sS'189'
p5081
(S'qft'
p5082
S' Queued File Transport'
p5083
tp5084
sS'2115'
p5085
(S'kdm'
p5086
S' Key Distribution Manager'
p5087
tp5088
sS'2622'
p5089
(S'metricadbc'
p5090
S' MetricaDBC'
p5091
tp5092
sS'2623'
p5093
(S'lmdp'
p5094
S' LMDP'
p5095
tp5096
sS'2627'
p5097
(S'webster'
p5098
S' Network dictionary'
p5099
tp5100
sS'2628'
p5101
(S'dict'
p5102
S' Dictionary service (RFC2229)'
p5103
tp5104
sS'1918'
p5105
(S'can-nds'
p5106
S' IBM Tivole Directory Service - NDS'
p5107
tp5108
sS'1911'
p5109
(S'mtp'
p5110
S' Starlight Networks Multimedia Transport Protocol'
p5111
tp5112
sS'5100'
p5113
(S'admd'
p5114
S' (chili!soft asp admin port) or Yahoo pager'
p5115
tp5116
sS'1912'
p5117
(S'rhp-iibp'
p5118
g83
tp5119
sS'3283'
p5120
(S'netassistant'
p5121
S' Apple Remote Desktop Net Assistant reporting feature'
p5122
tp5123
sS'1914'
p5124
(S'elm-momentum'
p5125
S' Elm-Momentum'
p5126
tp5127
sS'3281'
p5128
(S'sysopt'
p5129
S' SYSOPT'
p5130
tp5131
sS'3280'
p5132
(S'vs-server'
p5133
S' VS Server'
p5134
tp5135
sS'861'
p5136
(S'owamp-control'
p5137
S' OWAMP-Control'
p5138
tp5139
sS'860'
p5140
(S'iscsi'
p5141
S' iSCSI'
p5142
tp5143
sS'862'
p5144
(S'twamp-control'
p5145
S' Two-way Active Measurement Protocol (TWAMP) Control'
p5146
tp5147
sS'3443'
p5148
(S'ov-nnm-websrv'
p5149
S' OpenView Network Node Manager WEB Server'
p5150
tp5151
sS'2024'
p5152
(S'xinuexpansion4'
p5153
g83
tp5154
sS'2025'
p5155
(S'ellpack'
p5156
g83
tp5157
sS'2026'
p5158
(S'scrabble'
p5159
g83
tp5160
sS'2027'
p5161
(S'shadowserver'
p5162
g83
tp5163
sS'2020'
p5164
(S'xinupageserver'
p5165
g83
tp5166
sS'2021'
p5167
(S'servexec'
p5168
g83
tp5169
sS'2022'
p5170
(S'down'
p5171
g83
tp5172
sS'2023'
p5173
(S'xinuexpansion3'
p5174
g83
tp5175
sS'2028'
p5176
(S'submitserver'
p5177
g83
tp5178
sS'12346'
p5179
(S'netbus'
p5180
S' NetBus backdoor trojan'
p5181
tp5182
sS'13701'
p5183
(S'netbackup'
p5184
S' vmd           server'
p5185
tp5186
sS'887'
p5187
(S'iclcnet_svinfo'
p5188
S' ICL coNETion server info'
p5189
tp5190
sS'886'
p5191
(S'iclcnet-locate'
p5192
S' ICL coNETion locate server'
p5193
tp5194
sS'888'
p5195
(S'accessbuilder'
p5196
S' or Audio CD Database'
p5197
tp5198
sS'9050'
p5199
(S'tor-socks'
p5200
S' Tor SocksPort, www.torproject.org'
p5201
tp5202
sS'9051'
p5203
(S'tor-control'
p5204
S' Tor ControlPort, www.torproject.org'
p5205
tp5206
sS'7500'
p5207
(S'silhouette'
p5208
S' Silhouette User'
p5209
tp5210
sS'3989'
p5211
(S'bv-queryengine'
p5212
S' BindView-Query Engine'
p5213
tp5214
sS'775'
p5215
(S'entomb'
p5216
g83
tp5217
sS'774'
p5218
(S'rpasswd'
p5219
g83
tp5220
sS'777'
p5221
(S'multiling-http'
p5222
S' Multiling HTTP'
p5223
tp5224
sS'776'
p5225
(S'wpages'
p5226
g83
tp5227
sS'771'
p5228
(S'rtip'
p5229
g83
tp5230
sS'770'
p5231
(S'cadlock'
p5232
g83
tp5233
sS'773'
p5234
(S'submit'
p5235
g83
tp5236
sS'44442'
p5237
(S'coldfusion-auth'
p5238
S' ColdFusion Advanced Security/Siteminder Authentication Port (by Allaire/Netegrity)'
p5239
tp5240
sS'419'
p5241
(S'ariel1'
p5242
g83
tp5243
sS'77'
p5244
(S'priv-rje'
p5245
S' any private RJE service, netrjs'
p5246
tp5247
sS'76'
p5248
(S'deos'
p5249
S' Distributed External Object Store'
p5250
tp5251
sS'75'
p5252
(S'priv-dial'
p5253
S' any private dial out service'
p5254
tp5255
sS'74'
p5256
(S'netrjs-4'
p5257
S' Remote Job Service'
p5258
tp5259
sS'73'
p5260
(S'netrjs-3'
p5261
S' Remote Job Service'
p5262
tp5263
sS'72'
p5264
(S'netrjs-2'
p5265
S' Remote Job Service'
p5266
tp5267
sS'71'
p5268
(S'netrjs-1'
p5269
S' Remote Job Service'
p5270
tp5271
sS'70'
p5272
(S'gopher'
p5273
g83
tp5274
sS'3057'
p5275
(S'goahead-fldup'
p5276
S' GoAhead FldUp'
p5277
tp5278
sS'3052'
p5279
(S'powerchute'
p5280
g83
tp5281
sS'79'
p5282
(S'finger'
p5283
g83
tp5284
sS'1043'
p5285
(S'boinc'
p5286
S' BOINC Client Control or Microsoft IIS'
p5287
tp5288
sS'1042'
p5289
(S'afrog'
p5290
S' Subnet Roaming'
p5291
tp5292
sS'1041'
p5293
(S'danf-ak2'
p5294
S' AK2 Product'
p5295
tp5296
sS'1040'
p5297
(S'netsaint'
p5298
S' Netsaint status daemon'
p5299
tp5300
sS'1047'
p5301
(S'neod1'
p5302
S" Sun's NEO Object Request Broker"
p5303
tp5304
sS'1046'
p5305
(S'wfremotertm'
p5306
S' WebFilter Remote Monitor'
p5307
tp5308
sS'1045'
p5309
(S'fpitp'
p5310
S' Fingerprint Image Transfer Protocol'
p5311
tp5312
sS'1044'
p5313
(S'dcutility'
p5314
S' Dev Consortium Utility'
p5315
tp5316
sS'1049'
p5317
(S'td-postman'
p5318
S' Tobit David Postman VPMN'
p5319
tp5320
sS'1048'
p5321
(S'neod2'
p5322
S" Sun's NEO Object Request Broker"
p5323
tp5324
sS'31727'
p5325
(S'diagd'
p5326
g83
tp5327
sS'1680'
p5328
(S'CarbonCopy'
p5329
g83
tp5330
sS'1683'
p5331
(S'ncpm-hip'
p5332
g83
tp5333
sS'1687'
p5334
(S'nsjtp-ctrl'
p5335
g83
tp5336
sS'1688'
p5337
(S'nsjtp-data'
p5338
g83
tp5339
sS'3983'
p5340
(S'eisp'
p5341
S' ESRI Image Service'
p5342
tp5343
sS'4302'
p5344
(S'd-data-control'
p5345
S' Diagnostic Data Control'
p5346
tp5347
sS'1268'
p5348
(S'propel-msgsys'
p5349
S' PROPEL-MSGSYS'
p5350
tp5351
sS'669'
p5352
(S'meregister'
p5353
S' MeRegister'
p5354
tp5355
sS'668'
p5356
(S'mecomm'
p5357
S' MeComm'
p5358
tp5359
sS'667'
p5360
(S'disclose'
p5361
S' campaign contribution disclosures - SDR Technologies'
p5362
tp5363
sS'1262'
p5364
(S'qnts-orb'
p5365
S' QNTS-ORB'
p5366
tp5367
sS'1261'
p5368
(S'mpshrsv'
p5369
g83
tp5370
sS'664'
p5371
(S'secure-aux-bus'
p5372
g83
tp5373
sS'663'
p5374
(S'purenoise'
p5375
S' PureNoise'
p5376
tp5377
sS'662'
p5378
(S'pftp'
p5379
S' PFTP'
p5380
tp5381
sS'661'
p5382
(S'hap'
p5383
S' HAP'
p5384
tp5385
sS'1264'
p5386
(S'prat'
p5387
S' PRAT'
p5388
tp5389
sS'5102'
p5390
(S'admeng'
p5391
S' (chili!soft asp)'
p5392
tp5393
sS'7634'
p5394
(S'hddtemp'
p5395
S' A cross-platform hard disk temperature monitoring daemon'
p5396
tp5397
sS'3128'
p5398
(S'squid-http'
p5399
g83
tp5400
sS'5101'
p5401
(S'admdog'
p5402
S' (chili!soft asp)'
p5403
tp5404
sS'1469'
p5405
(S'aal-lm'
p5406
S' Active Analysis Limited License Manager'
p5407
tp5408
sS'1465'
p5409
(S'pipes'
p5410
S' Pipes Platform'
p5411
tp5412
sS'1464'
p5413
(S'msl_lmd'
p5414
S' MSL License Manager'
p5415
tp5416
sS'1467'
p5417
(S'csdmbase'
p5418
g83
tp5419
sS'1466'
p5420
(S'oceansoft-lm'
p5421
S' Ocean Software License Manager'
p5422
tp5423
sS'1461'
p5424
(S'ibm_wrless_lan'
p5425
S' IBM Wireless LAN'
p5426
tp5427
sS'1462'
p5428
(S'world-lm'
p5429
S' World License Manager'
p5430
tp5431
sS'1317'
p5432
(S'vrts-ipcserver'
p5433
g83
tp5434
sS'1316'
p5435
(S'exbit-escp'
p5436
S' Exbit-ESCP'
p5437
tp5438
sS'1315'
p5439
(S'els'
p5440
S' E.L.S., Event Listener Service'
p5441
tp5442
sS'1314'
p5443
(S'pdps'
p5444
S' Photoscript Distributed Printing System'
p5445
tp5446
sS'1311'
p5447
(S'rxmon'
p5448
g83
tp5449
sS'1310'
p5450
(S'husky'
p5451
S' Husky'
p5452
tp5453
sS'10010'
p5454
(S'rxapi'
p5455
S' ooRexx rxapi services'
p5456
tp5457
sS'1319'
p5458
(S'amx-icsp'
p5459
S' AMX-ICSP'
p5460
tp5461
sS'1318'
p5462
(S'krb5gatekeeper'
p5463
g83
tp5464
sS'4234'
p5465
(S'vrml-multi-use'
p5466
S' VRML Multi User Systems'
p5467
tp5468
sS'1010'
p5469
(S'surf'
p5470
g83
tp5471
sS'7725'
p5472
(S'nitrogen'
p5473
S' Nitrogen Service'
p5474
tp5475
sS'3948'
p5476
(S'apdap'
p5477
S' Anton Paar Device Administration Protocol'
p5478
tp5479
sS'3949'
p5480
(S'drip'
p5481
S' Dynamic Routing Information Protocol'
p5482
tp5483
sS'3940'
p5484
(S'xecp-node'
p5485
S' XeCP Node Service'
p5486
tp5487
sS'3941'
p5488
(S'homeportal-web'
p5489
S' Home Portal Web Server'
p5490
tp5491
sS'311'
p5492
(S'asip-webadmin'
p5493
S' appleshare ip webadmin'
p5494
tp5495
sS'3943'
p5496
(S'tig'
p5497
S' TetraNode Ip Gateway'
p5498
tp5499
sS'3944'
p5500
(S'sops'
p5501
S' S-Ops Management'
p5502
tp5503
sS'316'
p5504
(S'decauth'
p5505
g83
tp5506
sS'315'
p5507
(S'dpsi'
p5508
g83
tp5509
sS'6701'
p5510
(S'carracho'
p5511
S' Carracho file sharing'
p5512
tp5513
sS'6700'
p5514
(S'carracho'
p5515
S' Carracho file sharing'
p5516
tp5517
sS'9911'
p5518
(S'sype-transport'
p5519
S' SYPECom Transport Protocol'
p5520
tp5521
sS'4129'
p5522
(S'nuauth'
p5523
S' NuFW authentication protocol'
p5524
tp5525
sS'4121'
p5526
(S'e-builder'
p5527
S' e-Builder Application Communication'
p5528
tp5529
sS'4199'
p5530
(S'eims-admin'
p5531
S' Eudora Internet Mail Service (EIMS) admin'
p5532
tp5533
sS'4126'
p5534
(S'ddrepl'
p5535
S' Data Domain Replication Service'
p5536
tp5537
sS'4125'
p5538
(S'rww'
p5539
S' Microsoft Remote Web Workplace on Small Business Server'
p5540
tp5541
sS'1334'
p5542
(S'writesrv'
p5543
g83
tp5544
sS'1337'
p5545
(S'waste'
p5546
S' Nullsoft WASTE encrypted P2P app'
p5547
tp5548
sS'32778'
p5549
(S'sometimes-rpc19'
p5550
S' Sometimes an RPC port on my Solaris box (rstatd)'
p5551
tp5552
sS'1336'
p5553
(S'ischat'
p5554
S' Instant Service Chat'
p5555
tp5556
sS'32772'
p5557
(S'sometimes-rpc7'
p5558
S' Sometimes an RPC port on my Solaris box (status)'
p5559
tp5560
sS'1331'
p5561
(S'intersan'
p5562
g83
tp5563
sS'32770'
p5564
(S'sometimes-rpc3'
p5565
S' Sometimes an RPC port on my Solaris box'
p5566
tp5567
sS'32771'
p5568
(S'sometimes-rpc5'
p5569
S' Sometimes an RPC port on my Solaris box (rusersd)'
p5570
tp5571
sS'32776'
p5572
(S'sometimes-rpc15'
p5573
S' Sometimes an RPC port on my Solaris box (sprayd)'
p5574
tp5575
sS'32777'
p5576
(S'sometimes-rpc17'
p5577
S' Sometimes an RPC port on my Solaris box (walld)'
p5578
tp5579
sS'32774'
p5580
(S'sometimes-rpc11'
p5581
S' Sometimes an RPC port on my Solaris box (rusersd)'
p5582
tp5583
sS'1330'
p5584
(S'streetperfect'
p5585
S' StreetPerfect'
p5586
tp5587
sS'6670'
p5588
(S'irc'
p5589
S' Internet Relay Chat'
p5590
tp5591
sS'16080'
p5592
(S'osxwebadmin'
p5593
S' Apple OS X WebAdmin'
p5594
tp5595
sS'4056'
p5596
(S'lms'
p5597
S' Location Message Service'
p5598
tp5599
sS'12345'
p5600
(S'netbus'
p5601
S' NetBus backdoor trojan or Trend Micro Office Scan'
p5602
tp5603
sS'4700'
p5604
(S'netxms-agent'
p5605
S' NetXMS Agent'
p5606
tp5607
sS'4058'
p5608
(S'kingfisher'
p5609
S' Kingfisher protocol'
p5610
tp5611
sS'5978'
p5612
(S'ncd-diag-tcp'
p5613
S' NCD diagnostic tcp port'
p5614
tp5615
sS'5977'
p5616
(S'ncd-pref-tcp'
p5617
S' NCD preferences tcp port'
p5618
tp5619
sS'2292'
p5620
(S'mib-streaming'
p5621
S' Sonus Element Management Services'
p5622
tp5623
sS'2291'
p5624
(S'eapsp'
p5625
S' EPSON Advanced Printer Share Protocol'
p5626
tp5627
sS'5679'
p5628
(S'activesync'
p5629
S' Microsoft ActiveSync PDY synchronization'
p5630
tp5631
sS'16161'
p5632
(S'sun-sea-port'
p5633
S' Solaris SEA Port'
p5634
tp5635
sS'632'
p5636
(S'bmpp'
p5637
g83
tp5638
sS'2564'
p5639
(S'hp-3000-telnet'
p5640
S' HP 3000 NS/VT block mode telnet'
p5641
tp5642
sS'2567'
p5643
(S'clp'
p5644
S' Cisco Line Protocol'
p5645
tp5646
sS'2366'
p5647
(S'qip-login'
p5648
g83
tp5649
sS'9131'
p5650
(S'dddp'
p5651
S' Dynamic Device Discovery'
p5652
tp5653
sS'2584'
p5654
(S'cyaserv'
p5655
g83
tp5656
sS'2583'
p5657
(S'mon'
p5658
S' MON'
p5659
tp5660
sS'2580'
p5661
(S'tributary'
p5662
S' Tributary'
p5663
tp5664
sS'5021'
p5665
(S'zenginkyo-2'
p5666
g83
tp5667
sS'5020'
p5668
(S'zenginkyo-1'
p5669
g83
tp5670
sS'5023'
p5671
(S'htuilsrv'
p5672
S' Htuil Server for PLD2'
p5673
tp5674
sS'1861'
p5675
(S'lecroy-vicp'
p5676
S' LeCroy VICP'
p5677
tp5678
sS'1863'
p5679
(S'msnp'
p5680
S' MSN Messenger'
p5681
tp5682
sS'1862'
p5683
(S'mysql-cm-agent'
p5684
S' MySQL Cluster Manager Agent'
p5685
tp5686
sS'3728'
p5687
(S'e-woa'
p5688
S' Ericsson Web on Air'
p5689
tp5690
sS'1864'
p5691
(S'paradym-31'
p5692
g83
tp5693
sS'4446'
p5694
(S'n1-fwp'
p5695
S' N1-FWP'
p5696
tp5697
sS'4447'
p5698
(S'n1-rmgmt'
p5699
S' N1-RMGMT'
p5700
tp5701
sS'4449'
p5702
(S'privatewire'
p5703
S' PrivateWire'
p5704
tp5705
sS'4687'
p5706
(S'nst'
p5707
S' Network Scanner Tool FTP'
p5708
tp5709
sS'4689'
p5710
(S'altovacentral'
p5711
S' Altova DatabaseCentral'
p5712
tp5713
sS'2987'
p5714
(S'identify'
p5715
g83
tp5716
sS'6059'
p5717
(S'X11:59'
p5718
S' X Window server'
p5719
tp5720
sS'2103'
p5721
(S'zephyr-clt'
p5722
S' Zephyr serv-hm connection'
p5723
tp5724
sS'2101'
p5725
(S'rtcm-sc104'
p5726
g83
tp5727
sS'2100'
p5728
(S'amiganetfs'
p5729
S' Amiga Network Filesystem'
p5730
tp5731
sS'2107'
p5732
(S'msmq-mgmt'
p5733
S' Microsoft Message Queuing (IANA calls this bintec-admin)'
p5734
tp5735
sS'2106'
p5736
(S'ekshell'
p5737
S' Kerberos (v4) encrypted rshell'
p5738
tp5739
sS'2105'
p5740
(S'eklogin'
p5741
S' Kerberos (v4) encrypted rlogin'
p5742
tp5743
sS'2104'
p5744
(S'zephyr-hm'
p5745
S' Zephyr hostmanager'
p5746
tp5747
sS'10004'
p5748
(S'emcrmirccd'
p5749
S' EMC Replication Manager Client'
p5750
tp5751
sS'5114'
p5752
(S'ev-services'
p5753
S' Enterprise Vault Services'
p5754
tp5755
sS'6068'
p5756
(S'gsmp'
p5757
S' GSMP'
p5758
tp5759
sS'5111'
p5760
(S'taep-as-svc'
p5761
S' TAEP AS service'
p5762
tp5763
sS'2638'
p5764
(S'sybase'
p5765
S' Sybase database'
p5766
tp5767
sS'10002'
p5768
(S'documentum'
p5769
S' EMC-Documentum Content Server Product'
p5770
tp5771
sS'10003'
p5772
(S'documentum_s'
p5773
S' EMC-Documentum Content Server Product'
p5774
tp5775
sS'2631'
p5776
(S'sitaradir'
p5777
S' Sitara Dir'
p5778
tp5779
sS'10009'
p5780
(S'swdtp-sv'
p5781
S' Systemwalker Desktop Patrol'
p5782
tp5783
sS'9595'
p5784
(S'pds'
p5785
S' Ping Discovery System'
p5786
tp5787
sS'9594'
p5788
(S'msgsys'
p5789
S' Message System'
p5790
tp5791
sS'9593'
p5792
(S'cba8'
p5793
S' LANDesk Management Agent (cba8)'
p5794
tp5795
sS'3765'
p5796
(S'rtraceroute'
p5797
S' Remote Traceroute'
p5798
tp5799
sS'1241'
p5800
(S'nessus'
p5801
S' Nessus or remote message server'
p5802
tp5803
sS'1240'
p5804
(S'instantia'
p5805
S' Instantia'
p5806
tp5807
sS'3430'
p5808
(S'ssdispatch'
p5809
S' Scott Studios Dispatch'
p5810
tp5811
sS'1243'
p5812
(S'serialgateway'
p5813
S' SerialGateway'
p5814
tp5815
sS'871'
p5816
(S'supfilesrv'
p5817
S' SUP server'
p5818
tp5819
sS'2035'
p5820
(S'imsldoc'
p5821
g83
tp5822
sS'2034'
p5823
(S'scoremgr'
p5824
g83
tp5825
sS'2033'
p5826
(S'glogger'
p5827
g83
tp5828
sS'2031'
p5829
(S'mobrien-chat'
p5830
g83
tp5831
sS'2030'
p5832
(S'device2'
p5833
g83
tp5834
sS'9'
p5835
(S'discard'
p5836
S' sink null'
p5837
tp5838
sS'1533'
p5839
(S'virtual-places'
p5840
S' Virtual Places Software'
p5841
tp5842
sS'4599'
p5843
(S'a17-an-an'
p5844
S' A17 (AN-AN)'
p5845
tp5846
sS'2038'
p5847
(S'objectmanager'
p5848
g83
tp5849
sS'647'
p5850
(S'dhcp-failover'
p5851
S' DHCP Failover'
p5852
tp5853
sS'898'
p5854
(S'sun-manageconsole'
p5855
S' Solaris Management Console Java listener (Solaris 8 & 9)'
p5856
tp5857
sS'5201'
p5858
(S'targus-getdata1'
p5859
S' TARGUS GetData 1'
p5860
tp5861
sS'1249'
p5862
(S'mesavistaco'
p5863
S' Mesa Vista Co'
p5864
tp5865
sS'5202'
p5866
(S'targus-getdata2'
p5867
S' TARGUS GetData 2'
p5868
tp5869
sS'1248'
p5870
(S'hermes'
p5871
g83
tp5872
sS'9040'
p5873
(S'tor-trans'
p5874
S' Tor TransPort, www.torproject.org'
p5875
tp5876
sS'4369'
p5877
(S'epmd'
p5878
S' Erlang Port Mapper Daemon'
p5879
tp5880
sS'1537'
p5881
(S'sdsc-lm'
p5882
g83
tp5883
sS'2967'
p5884
(S'symantec-av'
p5885
S' Symantec AntiVirus (rtvscan.exe)'
p5886
tp5887
sS'769'
p5888
(S'vid'
p5889
g83
tp5890
sS'762'
p5891
(S'quotad'
p5892
g83
tp5893
sS'763'
p5894
(S'cycleserv'
p5895
g83
tp5896
sS'1782'
p5897
(S'hp-hcip'
p5898
g83
tp5899
sS'761'
p5900
(S'kpasswd'
p5901
S' kpwd Kerberos (v4) "passwd"'
p5902
tp5903
sS'2968'
p5904
(S'enpp'
p5905
S' ENPP'
p5906
tp5907
sS'764'
p5908
(S'omserv'
p5909
g83
tp5910
sS'765'
p5911
(S'webster'
p5912
g83
tp5913
sS'3049'
p5914
(S'cfs'
p5915
S' cryptographic file system (nfs) (proposed)'
p5916
tp5917
sS'10082'
p5918
(S'amandaidx'
p5919
S' Amanda indexing'
p5920
tp5921
sS'3045'
p5922
(S'slnp'
p5923
S' SLNP (Simple Library Network Protocol) by Sisis Informationssysteme GmbH'
p5924
tp5925
sS'1078'
p5926
(S'avocent-proxy'
p5927
S' Avocent Proxy Protocol'
p5928
tp5929
sS'1079'
p5930
(S'asprovatalk'
p5931
S' ASPROVATalk'
p5932
tp5933
sS'1076'
p5934
(S'sns_credit'
p5935
S' Shared Network Services (SNS) for Canadian credit card authorizations'
p5936
tp5937
sS'1535'
p5938
(S'ampr-info'
p5939
g83
tp5940
sS'1074'
p5941
(S'warmspotMgmt'
p5942
S' Warmspot Management Protocol'
p5943
tp5944
sS'1075'
p5945
(S'rdrmshc'
p5946
S' RDRMSHC'
p5947
tp5948
sS'1072'
p5949
(S'cardax'
p5950
S' CARDAX'
p5951
tp5952
sS'1073'
p5953
(S'bridgecontrol'
p5954
S' Bridge Control'
p5955
tp5956
sS'1070'
p5957
(S'gmrupdateserv'
p5958
S' GMRUpdateSERV'
p5959
tp5960
sS'1071'
p5961
(S'bsquare-voip'
p5962
S' BSQUARE-VOIP'
p5963
tp5964
sS'40000'
p5965
(S'safetynetp'
p5966
S' SafetyNET p'
p5967
tp5968
sS'1677'
p5969
(S'groupwise'
p5970
g83
tp5971
sS'1670'
p5972
(S'netview-aix-10'
p5973
g83
tp5974
sS'1671'
p5975
(S'netview-aix-11'
p5976
g83
tp5977
sS'1672'
p5978
(S'netview-aix-12'
p5979
g83
tp5980
sS'1094'
p5981
(S'rootd'
p5982
S' ROOTD'
p5983
tp5984
sS'1095'
p5985
(S'nicelink'
p5986
S' NICELink'
p5987
tp5988
sS'1096'
p5989
(S'cnrprotocol'
p5990
S' Common Name Resolution Protocol'
p5991
tp5992
sS'1097'
p5993
(S'sunclustermgr'
p5994
S' Sun Cluster Manager'
p5995
tp5996
sS'1090'
p5997
(S'ff-fms'
p5998
S' FF Fieldbus Message Specification'
p5999
tp6000
sS'1091'
p6001
(S'ff-sm'
p6002
S' FF System Management'
p6003
tp6004
sS'1092'
p6005
(S'obrpd'
p6006
S' Open Business Reporting Protocol'
p6007
tp6008
sS'1093'
p6009
(S'proofd'
p6010
S' PROOFD'
p6011
tp6012
sS'674'
p6013
(S'acap'
p6014
S' ACAP server of Communigate (www.stalker.com)'
p6015
tp6016
sS'675'
p6017
(S'dctp'
p6018
S' DCTP'
p6019
tp6020
sS'676'
p6021
(S'vpps-via'
p6022
S' VPPS Via'
p6023
tp6024
sS'677'
p6025
(S'vpp'
p6026
S' Virtual Presence Protocol'
p6027
tp6028
sS'1098'
p6029
(S'rmiactivation'
p6030
S' RMI Activation'
p6031
tp6032
sS'1099'
p6033
(S'rmiregistry'
p6034
S' RMI Registry'
p6035
tp6036
sS'672'
p6037
(S'vpps-qua'
p6038
S' VPPS-QUA'
p6039
tp6040
sS'673'
p6041
(S'cimplex'
p6042
S' CIMPLEX'
p6043
tp6044
sS'18000'
p6045
(S'biimenu'
p6046
S' Beckman Instruments, Inc.'
p6047
tp6048
sS'4443'
p6049
(S'pharos'
p6050
g83
tp6051
sS'1418'
p6052
(S'timbuktu-srv2'
p6053
S' Timbuktu Service 2 Port'
p6054
tp6055
sS'1419'
p6056
(S'timbuktu-srv3'
p6057
S' Timbuktu Service 3 Port'
p6058
tp6059
sS'1410'
p6060
(S'hiq'
p6061
S' HiQ License Manager'
p6062
tp6063
sS'1411'
p6064
(S'af'
p6065
S' AudioFile'
p6066
tp6067
sS'1412'
p6068
(S'innosys'
p6069
g83
tp6070
sS'1413'
p6071
(S'innosys-acl'
p6072
g83
tp6073
sS'1414'
p6074
(S'ibm-mqseries'
p6075
S' IBM MQSeries'
p6076
tp6077
sS'1416'
p6078
(S'novell-lu'
p6079
S' Novell LU'
p6080
tp6081
sS'1417'
p6082
(S'timbuktu-srv1'
p6083
S' Timbuktu Service 1 Port'
p6084
tp6085
sS'1322'
p6086
(S'novation'
p6087
S' Novation'
p6088
tp6089
sS'1532'
p6090
(S'miroconnect'
p6091
g83
tp6092
sS'1327'
p6093
(S'ultrex'
p6094
S' Ultrex'
p6095
tp6096
sS'1324'
p6097
(S'delta-mcp'
p6098
g83
tp6099
sS'1328'
p6100
(S'ewall'
p6101
S' EWALL'
p6102
tp6103
sS'8686'
p6104
(S'sun-as-jmxrmi'
p6105
S' Sun App Server - JMX/RMI'
p6106
tp6107
sS'6901'
p6108
(S'jetstream'
p6109
S' Novell Jetstream messaging protocol'
p6110
tp6111
sS'4200'
p6112
(S'vrml-multi-use'
p6113
S' VRML Multi User Systems'
p6114
tp6115
sS'4206'
p6116
(S'vrml-multi-use'
p6117
S' VRML Multi User Systems'
p6118
tp6119
sS'1531'
p6120
(S'rap-listen'
p6121
g83
tp6122
sS'44443'
p6123
(S'coldfusion-auth'
p6124
S' ColdFusion Advanced Security/Siteminder Authentication Port (by Allaire/Netegrity)'
p6125
tp6126
sS'4445'
p6127
(S'upnotifyp'
p6128
S' UPNOTIFYP'
p6129
tp6130
sS'5566'
p6131
(S'westec-connect'
p6132
S' Westec Connect'
p6133
tp6134
sS'27665'
p6135
(S'Trinoo_Master'
p6136
S' Trinoo distributed attack tool Master server control port'
p6137
tp6138
sS'5560'
p6139
(S'isqlplus'
p6140
S' Oracle web enabled SQL interface (version 10g+)'
p6141
tp6142
sS'1524'
p6143
(S'ingreslock'
p6144
S' ingres'
p6145
tp6146
sS'1525'
p6147
(S'orasrv'
p6148
S' oracle or Prospero Directory Service non-priv'
p6149
tp6150
sS'1526'
p6151
(S'pdap-np'
p6152
S' Prospero Data Access Prot non-priv'
p6153
tp6154
sS'1527'
p6155
(S'tlisrv'
p6156
S' oracle'
p6157
tp6158
sS'47624'
p6159
(S'directplaysrvr'
p6160
S' Direct Play Server'
p6161
tp6162
sS'1521'
p6163
(S'oracle'
p6164
S' Oracle Database'
p6165
tp6166
sS'1522'
p6167
(S'rna-lm'
p6168
S' Ricardo North America License Manager'
p6169
tp6170
sS'1523'
p6171
(S'cichild-lm'
p6172
g83
tp6173
sS'1528'
p6174
(S'mciautoreg'
p6175
g83
tp6176
sS'1529'
p6177
(S'support'
p6178
S' prmsd gnatsd\t# cygnus bug tracker'
p6179
tp6180
sS'1259'
p6181
(S'opennl-voice'
p6182
S' Open Network Library Voice'
p6183
tp6184
sS'308'
p6185
(S'novastorbakcup'
p6186
S' novastor backup'
p6187
tp6188
sS'3952'
p6189
(S'i3-sessionmgr'
p6190
S' I3 Session Manager'
p6191
tp6192
sS'22555'
p6193
(S'vocaltec-wconf'
p6194
S' Vocaltec Web Conference'
p6195
tp6196
sS'3957'
p6197
(S'mqe-broker'
p6198
S' MQEnterprise Broker'
p6199
tp6200
sS'3956'
p6201
(S'gvcp'
p6202
S' GigE Vision Control'
p6203
tp6204
sS'4112'
p6205
(S'apple-vpns-rp'
p6206
S' Apple VPN Server Reporting Protocol'
p6207
tp6208
sS'4113'
p6209
(S'aipn-reg'
p6210
S' AIPN LS Registration'
p6211
tp6212
sS'4111'
p6213
(S'xgrid'
p6214
S' Xgrid'
p6215
tp6216
sS'4118'
p6217
(S'netscript'
p6218
S' Netadmin Systems NETscript service'
p6219
tp6220
sS'4119'
p6221
(S'assuria-slm'
p6222
S' Assuria Log Manager'
p6223
tp6224
sS'7100'
p6225
(S'font-service'
p6226
S' X Font Service'
p6227
tp6228
sS'7101'
p6229
(S'elcn'
p6230
S' Embedded Light Control Network'
p6231
tp6232
sS'5012'
p6233
(S'nsp'
p6234
S' NetOnTap Service'
p6235
tp6236
sS'6600'
p6237
(S'mshvlm'
p6238
S' Microsoft Hyper-V Live Migration'
p6239
tp6240
sS'2973'
p6241
(S'svnetworks'
p6242
S' SV Networks'
p6243
tp6244
sS'5015'
p6245
(S'fmwp'
p6246
S' FileMaker, Inc. - Web publishing'
p6247
tp6248
sS'4065'
p6249
(S'avanti_cdp'
p6250
S' Avanti Common Data'
p6251
tp6252
sS'2108'
p6253
(S'rkinit'
p6254
S' Kerberos (v4) remote initialization'
p6255
tp6256
sS'3050'
p6257
(S'gds_db'
p6258
g83
tp6259
sS'3603'
p6260
(S'int-rcv-cntrl'
p6261
S' Integrated Rcvr Control'
p6262
tp6263
sS'3602'
p6264
(S'infiniswitchcl'
p6265
S' InfiniSwitch Mgr Client'
p6266
tp6267
sS'473'
p6268
(S'hybrid-pop'
p6269
g83
tp6270
sS'470'
p6271
(S'scx-proxy'
p6272
g83
tp6273
sS'6115'
p6274
(S'xic'
p6275
S' Xic IPC Service'
p6276
tp6277
sS'6110'
p6278
(S'softcm'
p6279
S' HP SoftBench CM'
p6280
tp6281
sS'6111'
p6282
(S'spc'
p6283
S' HP SoftBench Sub-Process Control'
p6284
tp6285
sS'6112'
p6286
(S'dtspc'
p6287
S' CDE subprocess control'
p6288
tp6289
sS'6113'
p6290
(S'dayliteserver'
p6291
S' Daylite Server'
p6292
tp6293
sS'7281'
p6294
(S'itactionserver2'
p6295
S' ITACTIONSERVER 2'
p6296
tp6297
sS'7937'
p6298
(S'nsrexecd'
p6299
S' Legato NetWorker'
p6300
tp6301
sS'9106'
p6302
(S'jetdirect'
p6303
S' HP JetDirect card'
p6304
tp6305
sS'7938'
p6306
(S'lgtomapper'
p6307
S' Legato portmapper'
p6308
tp6309
sS'9104'
p6310
(S'jetdirect'
p6311
S' HP JetDirect card'
p6312
tp6313
sS'9105'
p6314
(S'jetdirect'
p6315
S' HP JetDirect card'
p6316
tp6317
sS'9102'
p6318
(S'jetdirect'
p6319
S' HP JetDirect card. Also used (and officially registered for) Bacula File Daemon (an open source backup system)'
p6320
tp6321
sS'9103'
p6322
(S'jetdirect'
p6323
S' HP JetDirect card'
p6324
tp6325
sS'9100'
p6326
(S'jetdirect'
p6327
S' HP JetDirect card'
p6328
tp6329
sS'9101'
p6330
(S'jetdirect'
p6331
S' HP JetDirect card'
p6332
tp6333
sS'4454'
p6334
(S'nssagentmgr'
p6335
S' NSS Agent Manager'
p6336
tp6337
sS'3737'
p6338
(S'xpanel'
p6339
S' XPanel Daemon'
p6340
tp6341
sS'3731'
p6342
(S'smap'
p6343
S' Service Manager'
p6344
tp6345
sS'2134'
p6346
(S'avenue'
p6347
S' AVENUE'
p6348
tp6349
sS'2135'
p6350
(S'gris'
p6351
S' Grid Resource Information Server'
p6352
tp6353
sS'950'
p6354
(S'oftep-rpc'
p6355
S' Often RPC.statd (on Redhat Linux)'
p6356
tp6357
sS'953'
p6358
(S'rndc'
p6359
S' RNDC is used by BIND 9 (& probably other NS)'
p6360
tp6361
sS'6021'
p6362
(S'x11'
p6363
S' X Window System'
p6364
tp6365
sS'6025'
p6366
(S'x11'
p6367
S' X Window System'
p6368
tp6369
sS'14000'
p6370
(S'scotty-ft'
p6371
S' SCOTTY High-Speed Filetransfer'
p6372
tp6373
sS'14001'
p6374
(S'sua'
p6375
S' SUA'
p6376
tp6377
sS'2644'
p6378
(S'travsoft-ipx-t'
p6379
S' Travsoft IPX Tunnel'
p6380
tp6381
sS'9210'
p6382
(S'oma-mlp'
p6383
S' OMA Mobile Location Protocol'
p6384
tp6385
sS'9211'
p6386
(S'oma-mlp-s'
p6387
S' OMA Mobile Location Protocol Secure'
p6388
tp6389
sS'3421'
p6390
(S'bmap'
p6391
S' Bull Apprise portmapper'
p6392
tp6393
sS'3425'
p6394
(S'agps-port'
p6395
S' AGPS Access Port'
p6396
tp6397
sS'2002'
p6398
(S'globe'
p6399
g83
tp6400
sS'2003'
p6401
(S'finger'
p6402
S' GNU finger (cfingerd)'
p6403
tp6404
sS'2000'
p6405
(S'cisco-sccp'
p6406
S' cisco SCCP (Skinny Client Control Protocol)'
p6407
tp6408
sS'2001'
p6409
(S'dc'
p6410
S' or nfr20 web queries'
p6411
tp6412
sS'2006'
p6413
(S'invokator'
p6414
g83
tp6415
sS'2007'
p6416
(S'dectalk'
p6417
g83
tp6418
sS'2004'
p6419
(S'mailbox'
p6420
g83
tp6421
sS'2005'
p6422
(S'deslogin'
p6423
S' encrypted symmetric telnet/login'
p6424
tp6425
sS'2008'
p6426
(S'conf'
p6427
g83
tp6428
sS'2009'
p6429
(S'news'
p6430
g83
tp6431
sS'4300'
p6432
(S'corelccam'
p6433
S' Corel CCam'
p6434
tp6435
sS'10101'
p6436
(S'ezmeeting-2'
p6437
S' eZmeeting'
p6438
tp6439
sS'3551'
p6440
(S'apcupsd'
p6441
S' Apcupsd Information Port'
p6442
tp6443
sS'666'
p6444
(S'doom'
p6445
S' Id Software Doom'
p6446
tp6447
sS'665'
p6448
(S'sun-dr'
p6449
S' Sun DR'
p6450
tp6451
sS'2910'
p6452
(S'tdaccess'
p6453
S' TDAccess'
p6454
tp6455
sS'1799'
p6456
(S'netrisk'
p6457
S' NETRISK'
p6458
tp6459
sS'1792'
p6460
(S'ibm-dt-2'
p6461
g83
tp6462
sS'1791'
p6463
(S'ea1'
p6464
S' EA1'
p6465
tp6466
sS'714'
p6467
(S'iris-xpcs'
p6468
S' IRIS over XPCS'
p6469
tp6470
sS'713'
p6471
(S'iris-xpc'
p6472
S' IRIS over XPC'
p6473
tp6474
sS'712'
p6475
(S'tbrpf'
p6476
S' TBRPF'
p6477
tp6478
sS'711'
p6479
(S'cisco-tdp'
p6480
S' Cisco TDP'
p6481
tp6482
sS'710'
p6483
(S'entrust-ash'
p6484
S' Entrust Administration Service Handler'
p6485
tp6486
sS'660'
p6487
(S'mac-srvr-admin'
p6488
S' MacOS Server Admin'
p6489
tp6490
sS'7121'
p6491
(S'virprot-lm'
p6492
S' Virtual Prototypes License Manager'
p6493
tp6494
sS'1069'
p6495
(S'cognex-insight'
p6496
g83
tp6497
sS'1068'
p6498
(S'instl_bootc'
p6499
S' Installation Bootstrap Proto. Cli.'
p6500
tp6501
sS'1061'
p6502
(S'kiosk'
p6503
S' KIOSK'
p6504
tp6505
sS'1060'
p6506
(S'polestar'
p6507
g83
tp6508
sS'1063'
p6509
(S'kyoceranetdev'
p6510
S' KyoceraNetDev'
p6511
tp6512
sS'1062'
p6513
(S'veracity'
p6514
g83
tp6515
sS'1065'
p6516
(S'syscomlan'
p6517
S' SYSCOMLAN'
p6518
tp6519
sS'1064'
p6520
(S'jstel'
p6521
S' JSTEL'
p6522
tp6523
sS'1067'
p6524
(S'instl_boots'
p6525
S' Installation Bootstrap Proto. Serv.'
p6526
tp6527
sS'1066'
p6528
(S'fpo-fns'
p6529
g83
tp6530
sS'1668'
p6531
(S'netview-aix-8'
p6532
g83
tp6533
sS'1667'
p6534
(S'netview-aix-7'
p6535
g83
tp6536
sS'1666'
p6537
(S'netview-aix-6'
p6538
g83
tp6539
sS'1664'
p6540
(S'netview-aix-4'
p6541
g83
tp6542
sS'1663'
p6543
(S'netview-aix-3'
p6544
g83
tp6545
sS'1662'
p6546
(S'netview-aix-2'
p6547
g83
tp6548
sS'1661'
p6549
(S'netview-aix-1'
p6550
g83
tp6551
sS'591'
p6552
(S'http-alt'
p6553
S' FileMaker, Inc. - HTTP Alternate'
p6554
tp6555
sS'1086'
p6556
(S'cplscrambler-lg'
p6557
S' CPL Scrambler Logging'
p6558
tp6559
sS'593'
p6560
(S'http-rpc-epmap'
p6561
S' HTTP RPC Ep Map'
p6562
tp6563
sS'1084'
p6564
(S'ansoft-lm-2'
p6565
S' Anasoft License Manager'
p6566
tp6567
sS'1083'
p6568
(S'ansoft-lm-1'
p6569
S' Anasoft License Manager'
p6570
tp6571
sS'1082'
p6572
(S'amt-esd-prot'
p6573
S' AMT-ESD-PROT'
p6574
tp6575
sS'1081'
p6576
(S'pvuniwien'
p6577
S' PVUNIWIEN'
p6578
tp6579
sS'596'
p6580
(S'smsd'
p6581
g83
tp6582
sS'599'
p6583
(S'acp'
p6584
S' Aeolon Core Protocol'
p6585
tp6586
sS'598'
p6587
(S'sco-websrvrmg3'
p6588
S' SCO Web Server Manager 3'
p6589
tp6590
sS'4325'
p6591
(S'geognosisman'
p6592
S' Cadcorp GeognoSIS Manager Service'
p6593
tp6594
sS'1089'
p6595
(S'ff-annunc'
p6596
S' FF Annunciation'
p6597
tp6598
sS'1088'
p6599
(S'cplscrambler-al'
p6600
S' CPL Scrambler Alarm Log'
p6601
tp6602
sS'3141'
p6603
(S'vmodem'
p6604
g83
tp6605
sS'3146'
p6606
(S'bears-02'
p6607
g83
tp6608
sS'5414'
p6609
(S'statusd'
p6610
S' StatusD'
p6611
tp6612
sS'3388'
p6613
(S'cbserver'
p6614
S' CB Server'
p6615
tp6616
sS'3389'
p6617
(S'ms-wbt-server'
p6618
S' Microsoft Remote Display Protocol (aka ms-term-serv, microsoft-rdp)'
p6619
tp6620
sS'1409'
p6621
(S'here-lm'
p6622
S' Here License Manager'
p6623
tp6624
sS'1408'
p6625
(S'sophia-lm'
p6626
S' Sophia License Manager'
p6627
tp6628
sS'1403'
p6629
(S'prm-nm-np'
p6630
S' Prospero Resource Manager'
p6631
tp6632
sS'1402'
p6633
(S'prm-sm-np'
p6634
S' Prospero Resource Manager'
p6635
tp6636
sS'1401'
p6637
(S'goldleaf-licman'
p6638
S' Goldleaf License Manager'
p6639
tp6640
sS'1400'
p6641
(S'cadkey-tablet'
p6642
S' Cadkey Tablet Daemon'
p6643
tp6644
sS'1407'
p6645
(S'dbsa-lm'
p6646
S' DBSA License Manager'
p6647
tp6648
sS'1405'
p6649
(S'ibm-res'
p6650
S' IBM Remote Execution Starter'
p6651
tp6652
sS'1404'
p6653
(S'igi-lm'
p6654
S' Infinite Graphics License Manager'
p6655
tp6656
sS'449'
p6657
(S'as-servermap'
p6658
S' AS Server Mapper'
p6659
tp6660
sS'448'
p6661
(S'ddm-ssl'
p6662
S' ddm-byte'
p6663
tp6664
sS'1339'
p6665
(S'kjtsiteserver'
p6666
g83
tp6667
sS'443'
p6668
(S'https'
p6669
S' secure http (SSL)'
p6670
tp6671
sS'442'
p6672
(S'cvc_hostd'
p6673
g83
tp6674
sS'441'
p6675
(S'decvms-sysmgt'
p6676
g83
tp6677
sS'440'
p6678
(S'sgcp'
p6679
g83
tp6680
sS'447'
p6681
(S'ddm-dfm'
p6682
g83
tp6683
sS'446'
p6684
(S'ddm-rdb'
p6685
g83
tp6686
sS'445'
p6687
(S'microsoft-ds'
p6688
S' SMB directly over IP'
p6689
tp6690
sS'444'
p6691
(S'snpp'
p6692
S' Simple Network Paging Protocol'
p6693
tp6694
sS'65'
p6695
(S'tacacs-ds'
p6696
S' TACACS-Database Service'
p6697
tp6698
sS'691'
p6699
(S'resvc'
p6700
S' The Microsoft Exchange 2000 Server Routing Service'
p6701
tp6702
sS'696'
p6703
(S'rushd'
p6704
S' RUSHD'
p6705
tp6706
sS'8123'
p6707
(S'polipo'
p6708
S' Polipo open source web proxy cache'
p6709
tp6710
sS'697'
p6711
(S'uuidgen'
p6712
S' UUIDGEN'
p6713
tp6714
sS'38'
p6715
(S'rap'
p6716
S' Route Access Protocol'
p6717
tp6718
sS'694'
p6719
(S'ha-cluster'
p6720
g83
tp6721
sS'33'
p6722
(S'dsp'
p6723
S' Display Support Protocol'
p6724
tp6725
sS'31'
p6726
(S'msg-auth'
p6727
S' MSG Authentication'
p6728
tp6729
sS'695'
p6730
(S'ieee-mms-ssl'
p6731
S' IEEE-MMS-SSL'
p6732
tp6733
sS'37'
p6734
(S'time'
p6735
S' timserver'
p6736
tp6737
sS'35'
p6738
(S'priv-print'
p6739
S' any private printer server'
p6740
tp6741
sS'641'
p6742
(S'repcmd'
p6743
g83
tp6744
sS'640'
p6745
(S'entrust-sps'
p6746
g83
tp6747
sS'643'
p6748
(S'sanity'
p6749
S' SANity'
p6750
tp6751
sS'642'
p6752
(S'esro-emsdp'
p6753
S' ESRO-EMSDP V'
p6754
tp6755
sS'645'
p6756
(S'pssc'
p6757
S' PSSC'
p6758
tp6759
sS'644'
p6760
(S'dwr'
p6761
g83
tp6762
sS'1247'
p6763
(S'visionpyramid'
p6764
S' VisionPyramid'
p6765
tp6766
sS'646'
p6767
(S'ldp'
p6768
S' Label Distribution'
p6769
tp6770
sS'649'
p6771
(S'cadview-3d'
p6772
S' Cadview-3d - streaming 3d models over the internet'
p6773
tp6774
sS'648'
p6775
(S'rrp'
p6776
S' Registry Registrar Protocol (RRP)'
p6777
tp6778
sS'1539'
p6779
(S'intellistor-lm'
p6780
S' Intellistor License Manager'
p6781
tp6782
sS'1538'
p6783
(S'3ds-lm'
p6784
g83
tp6785
sS'5003'
p6786
(S'filemaker'
p6787
S' Filemaker Server - http://www.filemaker.com/ti/104289.html'
p6788
tp6789
sS'333'
p6790
(S'texar'
p6791
S' Texar Security Port'
p6792
tp6793
sS'4101'
p6794
(S'brlp-0'
p6795
S' Braille protocol'
p6796
tp6797
sS'4100'
p6798
(S'igo-incognito'
p6799
S' IGo Incognito Data Port'
p6800
tp6801
sS'1026'
p6802
(S'LSA-or-nterm'
p6803
S' nterm remote_login network_terminal'
p6804
tp6805
sS'3899'
p6806
(S'itv-control'
p6807
S' ITV Port'
p6808
tp6809
sS'3890'
p6810
(S'ndsconnect'
p6811
S' Niche Data Server Connect'
p6812
tp6813
sS'3897'
p6814
(S'sdo-ssh'
p6815
S' Simple Distributed Objects over SSH'
p6816
tp6817
sS'22128'
p6818
(S'gsidcap'
p6819
S' GSI dCache Access Protocol'
p6820
tp6821
sS'14141'
p6822
(S'bo2k'
p6823
S' Back Orifice 2K BoPeep mouse/keyboard input'
p6824
tp6825
sS'22125'
p6826
(S'dcap'
p6827
S' dCache Access Protocol'
p6828
tp6829
sS'3967'
p6830
(S'ppsms'
p6831
S' PPS Message Service'
p6832
tp6833
sS'3964'
p6834
(S'sasggprs'
p6835
S' SASG GPRS'
p6836
tp6837
sS'3962'
p6838
(S'sbi-agent'
p6839
S' SBI Agent Protocol'
p6840
tp6841
sS'3963'
p6842
(S'thrp'
p6843
S' Teran Hybrid Routing Protocol'
p6844
tp6845
sS'3961'
p6846
(S'proaxess'
p6847
S' ProAxess Server'
p6848
tp6849
sS'7278'
p6850
(S'oma-dcdocbs'
p6851
S' OMA Dynamic Content Delivery over CBS'
p6852
tp6853
sS'3968'
p6854
(S'ianywhere-dbns'
p6855
S' iAnywhere DBNS'
p6856
tp6857
sS'3969'
p6858
(S'landmarks'
p6859
S' Landmark Messages'
p6860
tp6861
sS'5080'
p6862
(S'onscreen'
p6863
S' OnScreen Data Collection Service'
p6864
tp6865
sS'3636'
p6866
(S'servistaitsm'
p6867
S' SerVistaITSM'
p6868
tp6869
sS'3637'
p6870
(S'scservp'
p6871
S' Customer Service Port'
p6872
tp6873
sS'3632'
p6874
(S'distccd'
p6875
S' Distributed compiler daemon'
p6876
tp6877
sS'6142'
p6878
(S'aspentec-lm'
p6879
S' Aspen Technology License Manager'
p6880
tp6881
sS'2340'
p6882
(S'wrs_registry'
p6883
S' WRS Registry'
p6884
tp6885
sS'6106'
p6886
(S'isdninfo'
p6887
S' i4lmond'
p6888
tp6889
sS'6105'
p6890
(S'isdninfo'
p6891
g83
tp6892
sS'6103'
p6893
(S'RETS-or-BackupExec'
p6894
S' Backup Exec Agent Accelerator and Remote Agent also sql server and cisco works blue'
p6895
tp6896
sS'6101'
p6897
(S'backupexec'
p6898
S' Backup Exec UNIX and 95/98/ME Aent'
p6899
tp6900
sS'6100'
p6901
(S'synchronet-db'
p6902
S' SynchroNet-db'
p6903
tp6904
sS'16992'
p6905
(S'amt-soap-http'
p6906
S' Intel(R) AMT SOAP/HTTP'
p6907
tp6908
sS'16993'
p6909
(S'amt-soap-https'
p6910
S' Intel(R) AMT SOAP/HTTPS'
p6911
tp6912
sS'9111'
p6913
(S'DragonIDSConsole'
p6914
S' Dragon IDS Console'
p6915
tp6916
sS'9444'
p6917
(S'wso2esb-console'
p6918
S' WSO2 ESB Administration Console HTTPS'
p6919
tp6920
sS'9443'
p6921
(S'tungsten-https'
p6922
S' WSO2 Tungsten HTTPS'
p6923
tp6924
sS'3703'
p6925
(S'adobeserver-3'
p6926
S' Adobe Server 3'
p6927
tp6928
sS'3700'
p6929
(S'lrs-paging'
p6930
S' LRS NetPage'
p6931
tp6932
sS'16444'
p6933
(S'overnet'
p6934
S' Overnet file sharing'
p6935
tp6936
sS'2121'
p6937
(S'ccproxy-ftp'
p6938
S' CCProxy FTP Proxy'
p6939
tp6940
sS'2120'
p6941
(S'kauth'
p6942
S' Remote kauth'
p6943
tp6944
sS'2124'
p6945
(S'elatelink'
p6946
S' ELATELINK'
p6947
tp6948
sS'2126'
p6949
(S'pktcable-cops'
p6950
S' PktCable-COPS'
p6951
tp6952
sS'4665'
p6953
(S'contclientms'
p6954
S' Container Client Message Service'
p6955
tp6956
sS'4660'
p6957
(S'mosmig'
p6958
S' OpenMOSix MIGrates local processes'
p6959
tp6960
sS'4662'
p6961
(S'edonkey'
p6962
S' eDonkey file sharing (Donkey)'
p6963
tp6964
sS'6030'
p6965
(S'x11'
p6966
S' X Window System'
p6967
tp6968
sS'9207'
p6969
(S'wap-vcal-s'
p6970
S' WAP vCal Secure'
p6971
tp6972
sS'9200'
p6973
(S'wap-wsp'
p6974
S' WAP connectionless session services'
p6975
tp6976
sS'9202'
p6977
(S'wap-wsp-s'
p6978
S' WAP secure connectionless session service'
p6979
tp6980
sS'133'
p6981
(S'statsrv'
p6982
S' Statistics Service'
p6983
tp6984
sS'132'
p6985
(S'cisco-sys'
p6986
S' cisco SYSMAINT'
p6987
tp6988
sS'3414'
p6989
(S'wip-port'
p6990
S' BroadCloud WIP Port'
p6991
tp6992
sS'130'
p6993
(S'cisco-fna'
p6994
S' cisco FNATIVE'
p6995
tp6996
sS'137'
p6997
(S'netbios-ns'
p6998
S' NETBIOS Name Service'
p6999
tp7000
sS'136'
p7001
(S'profile'
p7002
S' PROFILE Naming System'
p7003
tp7004
sS'135'
p7005
(S'msrpc'
p7006
S' Microsoft RPC services'
p7007
tp7008
sS'139'
p7009
(S'netbios-ssn'
p7010
S' NETBIOS Session Service'
p7011
tp7012
sS'138'
p7013
(S'netbios-dgm'
p7014
S' NETBIOS Datagram Service'
p7015
tp7016
sS'17007'
p7017
(S'isode-dua'
p7018
g83
tp7019
sS'3419'
p7020
(S'softaudit'
p7021
S' Isogon SoftAudit'
p7022
tp7023
sS'2019'
p7024
(S'whosockami'
p7025
g83
tp7026
sS'2018'
p7027
(S'terminaldb'
p7028
g83
tp7029
sS'2015'
p7030
(S'cypress'
p7031
g83
tp7032
sS'2014'
p7033
(S'troff'
p7034
g83
tp7035
sS'2016'
p7036
(S'bootserver'
p7037
g83
tp7038
sS'2011'
p7039
(S'raid-cc'
p7040
S' raid'
p7041
tp7042
sS'2010'
p7043
(S'search'
p7044
S' Or nfr411'
p7045
tp7046
sS'2013'
p7047
(S'raid-am'
p7048
g83
tp7049
sS'2012'
p7050
(S'ttyinfo'
p7051
g83
tp7052
sS'158'
p7053
(S'pcmail-srv'
p7054
S' PCMail Server'
p7055
tp7056
sS'10115'
p7057
(S'netiq-endpt'
p7058
S' NetIQ Endpoint'
p7059
tp7060
sS'4480'
p7061
(S'proxy-plus'
p7062
S' Proxy+ HTTP proxy port'
p7063
tp7064
sS'2903'
p7065
(S'extensisportfolio'
p7066
S' Portfolio Server by Extensis Product Group'
p7067
tp7068
sS'2902'
p7069
(S'netaspi'
p7070
S' NET ASPI'
p7071
tp7072
sS'2901'
p7073
(S'allstorcns'
p7074
S' ALLSTORCNS'
p7075
tp7076
sS'709'
p7077
(S'entrustmanager'
p7078
S' EntrustManager - NorTel DES auth network see 389/tcp'
p7079
tp7080
sS'704'
p7081
(S'elcsd'
p7082
S' errlog copy/server daemon'
p7083
tp7084
sS'705'
p7085
(S'agentx'
p7086
S' AgentX'
p7087
tp7088
sS'706'
p7089
(S'silc'
p7090
S' Secure Internet Live Conferencing -- http://silcnet.org'
p7091
tp7092
sS'707'
p7093
(S'borland-dsj'
p7094
S' Borland DSJ'
p7095
tp7096
sS'700'
p7097
(S'epp'
p7098
S' Extensible Provisioning Protocol'
p7099
tp7100
sS'701'
p7101
(S'lmp'
p7102
S' Link Management Protocol (LMP)'
p7103
tp7104
sS'702'
p7105
(S'iris-beep'
p7106
S' IRIS over BEEP'
p7107
tp7108
sS'88'
p7109
(S'kerberos-sec'
p7110
S' Kerberos (v5)'
p7111
tp7112
sS'89'
p7113
(S'su-mit-tg'
p7114
S' SU/MIT Telnet Gateway'
p7115
tp7116
sS'82'
p7117
(S'xfer'
p7118
S' XFER Utility'
p7119
tp7120
sS'83'
p7121
(S'mit-ml-dev'
p7122
S' MIT ML Device'
p7123
tp7124
sS'80'
p7125
(S'http'
p7126
S' World Wide Web HTTP'
p7127
tp7128
sS'81'
p7129
(S'hosts2-ns'
p7130
S' HOSTS2 Name Server'
p7131
tp7132
sS'86'
p7133
(S'mfcobol'
p7134
S' Micro Focus Cobol'
p7135
tp7136
sS'87'
p7137
(S'priv-term-l'
p7138
S' any private terminal link, ttylink'
p7139
tp7140
sS'84'
p7141
(S'ctf'
p7142
S' Common Trace Facility'
p7143
tp7144
sS'85'
p7145
(S'mit-ml-dev'
p7146
S' MIT ML Device'
p7147
tp7148
sS'1658'
p7149
(S'sixnetudr'
p7150
g83
tp7151
sS'8800'
p7152
(S'sunwebadmin'
p7153
S' Sun Web Server Admin Service'
p7154
tp7155
sS'1652'
p7156
(S'xnmp'
p7157
g83
tp7158
sS'410'
p7159
(S'decladebug'
p7160
S' DECLadebug Remote Debug Protocol'
p7161
tp7162
sS'1650'
p7163
(S'nkd'
p7164
g83
tp7165
sS'1651'
p7166
(S'shiva_confsrvr'
p7167
g83
tp7168
sS'411'
p7169
(S'rmt'
p7170
S' Remote MT Protocol'
p7171
tp7172
sS'587'
p7173
(S'submission'
p7174
g83
tp7175
sS'6580'
p7176
(S'parsec-master'
p7177
S' Parsec Masterserver'
p7178
tp7179
sS'582'
p7180
(S'scc-security'
p7181
g83
tp7182
sS'583'
p7183
(S'philips-vc'
p7184
S' Philips Video-Conferencing'
p7185
tp7186
sS'47557'
p7187
(S'dbbrowse'
p7188
S' Databeam Corporation'
p7189
tp7190
sS'6588'
p7191
(S'analogx'
p7192
S' AnalogX HTTP proxy port'
p7193
tp7194
sS'1632'
p7195
(S'pammratc'
p7196
S' PAMMRATC'
p7197
tp7198
sS'8200'
p7199
(S'trivnet1'
p7200
S' TRIVNET'
p7201
tp7202
sS'8201'
p7203
(S'trivnet2'
p7204
S' TRIVNET'
p7205
tp7206
sS'7627'
p7207
(S'soap-http'
p7208
S' SOAP Service Port'
p7209
tp7210
sS'7628'
p7211
(S'zen-pawn'
p7212
S' Primary Agent Work Notification'
p7213
tp7214
sS'1635'
p7215
(S'edb-server1'
p7216
S' EDB Server 1'
p7217
tp7218
sS'1436'
p7219
(S'sas-2'
p7220
S' Satellite-data Acquisition System 2'
p7221
tp7222
sS'1437'
p7223
(S'tabula'
p7224
g83
tp7225
sS'1434'
p7226
(S'ms-sql-m'
p7227
S' Microsoft-SQL-Monitor'
p7228
tp7229
sS'1435'
p7230
(S'ibm-cics'
p7231
g83
tp7232
sS'1432'
p7233
(S'blueberry-lm'
p7234
S' Blueberry Software License Manager'
p7235
tp7236
sS'1433'
p7237
(S'ms-sql-s'
p7238
S' Microsoft-SQL-Server'
p7239
tp7240
sS'1430'
p7241
(S'tpdu'
p7242
S' Hypercom TPDU'
p7243
tp7244
sS'3396'
p7245
(S'printer_agent'
p7246
S' Printer Agent'
p7247
tp7248
sS'3399'
p7249
(S'sapeps'
p7250
S' SAP EPS'
p7251
tp7252
sS'3398'
p7253
(S'sapcomm'
p7254
S' SAPcomm'
p7255
tp7256
sS'1438'
p7257
(S'eicon-server'
p7258
S' Eicon Security Agent/Server'
p7259
tp7260
sS'1439'
p7261
(S'eicon-x25'
p7262
S' Eicon X25/SNA Gateway'
p7263
tp7264
sS'1348'
p7265
(S'bbn-mmx'
p7266
S' multi media conferencing'
p7267
tp7268
sS'1349'
p7269
(S'sbook'
p7270
S' Registration Network Protocol'
p7271
tp7272
sS'4262'
p7273
(S'vrml-multi-use'
p7274
S' VRML Multi User Systems'
p7275
tp7276
sS'450'
p7277
(S'tserver'
p7278
g83
tp7279
sS'451'
p7280
(S'sfs-smp-net'
p7281
S' Cray Network Semaphore server'
p7282
tp7283
sS'452'
p7284
(S'sfs-config'
p7285
S' Cray SFS config server'
p7286
tp7287
sS'453'
p7288
(S'creativeserver'
p7289
g83
tp7290
sS'454'
p7291
(S'contentserver'
p7292
g83
tp7293
sS'456'
p7294
(S'macon'
p7295
g83
tp7296
sS'1347'
p7297
(S'bbn-mmc'
p7298
S' multi media conferencing'
p7299
tp7300
sS'8118'
p7301
(S'privoxy'
p7302
S' Privoxy, www.privoxy.org'
p7303
tp7304
sS'9876'
p7305
(S'sd'
p7306
S' Session Director'
p7307
tp7308
sS'9875'
p7309
(S'sapv1'
p7310
S' Session Announcement v1'
p7311
tp7312
sS'8116'
p7313
(S'cp-cluster'
p7314
S' Check Point Clustering'
p7315
tp7316
sS'656'
p7317
(S'spmp'
p7318
S' SPMP'
p7319
tp7320
sS'1503'
p7321
(S'imtc-mcs'
p7322
S' Databeam'
p7323
tp7324
sS'654'
p7325
(S'aodv'
p7326
S' AODV'
p7327
tp7328
sS'1501'
p7329
(S'sas-3'
p7330
S' Satellite-data Acquisition System 3'
p7331
tp7332
sS'3089'
p7333
(S'ptk-alink'
p7334
S' ParaTek Agent Linking'
p7335
tp7336
sS'653'
p7337
(S'repscmd'
p7338
S' RepCmd'
p7339
tp7340
sS'651'
p7341
(S'ieee-mms'
p7342
S' IEEE MMS'
p7343
tp7344
sS'1508'
p7345
(S'diagmond'
p7346
g83
tp7347
sS'1509'
p7348
(S'robcad-lm'
p7349
S' Robcad, Ltd. License Manager'
p7350
tp7351
sS'3080'
p7352
(S'stm_pproc'
p7353
g83
tp7354
sS'658'
p7355
(S'tenfold'
p7356
S' TenFold'
p7357
tp7358
sS'516'
p7359
(S'videotex'
p7360
g83
tp7361
sS'31337'
p7362
(S'Elite'
p7363
S' Sometimes interesting stuff can be found here'
p7364
tp7365
sS'3945'
p7366
(S'emcads'
p7367
S' EMCADS Server Port'
p7368
tp7369
sS'3946'
p7370
(S'backupedge'
p7371
S' BackupEDGE Server'
p7372
tp7373
sS'1992'
p7374
(S'stun-p3'
p7375
S' cisco STUN Priority 3 port'
p7376
tp7377
sS'3880'
p7378
(S'igrs'
p7379
S' IGRS'
p7380
tp7381
sS'3882'
p7382
(S'msdts1'
p7383
S' DTS Service Port'
p7384
tp7385
sS'3889'
p7386
(S'dandv-tester'
p7387
S' D and V Tester Control Port'
p7388
tp7389
sS'3888'
p7390
(S'ciphire-serv'
p7391
S' Ciphire Services'
p7392
tp7393
sS'7400'
p7394
(S'rtps-discovery'
p7395
S' RTPS Discovery'
p7396
tp7397
sS'7402'
p7398
(S'rtps-dd-mt'
p7399
S' RTPS Data-Distribution Meta-Traffic'
p7400
tp7401
sS'15151'
p7402
(S'bo2k'
p7403
S' Back Orifice 2K BoPeep video output'
p7404
tp7405
sS'4912'
p7406
(S'lutap'
p7407
S' Technicolor LUT Access Protocol'
p7408
tp7409
sS'6628'
p7410
(S'afesc-mc'
p7411
S' AFE Stock Channel M/C'
p7412
tp7413
sS'4008'
p7414
(S'netcheque'
p7415
S' NetCheque accounting'
p7416
tp7417
sS'4009'
p7418
(S'chimera-hwm'
p7419
S' Chimera HWM'
p7420
tp7421
sS'4000'
p7422
(S'remoteanything'
p7423
S' neoworx remote-anything slave remote control'
p7424
tp7425
sS'4001'
p7426
(S'newoak'
p7427
S' NewOak'
p7428
tp7429
sS'4002'
p7430
(S'mlchat-proxy'
p7431
S' mlnet - MLChat P2P chat proxy'
p7432
tp7433
sS'4003'
p7434
(S'pxc-splr-ft'
p7435
g83
tp7436
sS'4004'
p7437
(S'pxc-roid'
p7438
g83
tp7439
sS'4005'
p7440
(S'pxc-pin'
p7441
g83
tp7442
sS'4006'
p7443
(S'pxc-spvr'
p7444
g83
tp7445
sS'4007'
p7446
(S'pxc-splr'
p7447
g83
tp7448
sS'322'
p7449
(S'rtsps'
p7450
S' RTSPS'
p7451
tp7452
sS'3972'
p7453
(S'iconp'
p7454
S' ict-control Protocol'
p7455
tp7456
sS'3975'
p7457
(S'airshot'
p7458
S' Air Shot'
p7459
tp7460
sS'3979'
p7461
(S'smwan'
p7462
S' Smith Micro Wide Area Network Service'
p7463
tp7464
sS'9898'
p7465
(S'monkeycom'
p7466
S' MonkeyCom'
p7467
tp7468
sS'25000'
p7469
(S'icl-twobase1'
p7470
g83
tp7471
sS'25001'
p7472
(S'icl-twobase2'
p7473
g83
tp7474
sS'3621'
p7475
(S'ep-nsp'
p7476
S' EPSON Network Screen Port'
p7477
tp7478
sS'3622'
p7479
(S'ff-lr-port'
p7480
S' FF LAN Redundancy Port'
p7481
tp7482
sS'1340'
p7483
(S'naap'
p7484
S' NAAP'
p7485
tp7486
sS'2330'
p7487
(S'tscchat'
p7488
S' TSCCHAT'
p7489
tp7490
sS'2335'
p7491
(S'ace-proxy'
p7492
S' ACE Proxy'
p7493
tp7494
sS'1594'
p7495
(S'sixtrak'
p7496
g83
tp7497
sS'3712'
p7498
(S'sentinel-ent'
p7499
S' Sentinel Enterprise'
p7500
tp7501
sS'3077'
p7502
(S'orbix-loc-ssl'
p7503
S' Orbix 2000 Locator SSL'
p7504
tp7505
sS'6006'
p7506
(S'X11:6'
p7507
S' X Window server'
p7508
tp7509
sS'6007'
p7510
(S'X11:7'
p7511
S' X Window server'
p7512
tp7513
sS'6004'
p7514
(S'X11:4'
p7515
S' X Window server'
p7516
tp7517
sS'6005'
p7518
(S'X11:5'
p7519
S' X Window server'
p7520
tp7521
sS'6002'
p7522
(S'X11:2'
p7523
S' X Window server'
p7524
tp7525
sS'6003'
p7526
(S'X11:3'
p7527
S' X Window server'
p7528
tp7529
sS'6000'
p7530
(S'X11'
p7531
S' X Window server'
p7532
tp7533
sS'6001'
p7534
(S'X11:1'
p7535
S' X Window server'
p7536
tp7537
sS'4900'
p7538
(S'hfcs'
p7539
S' HyperFileSQL Client/Server Database Engine'
p7540
tp7541
sS'4672'
p7542
(S'rfa'
p7543
S' remote file access server'
p7544
tp7545
sS'6008'
p7546
(S'X11:8'
p7547
S' X Window server'
p7548
tp7549
sS'6009'
p7550
(S'X11:9'
p7551
S' X Window server'
p7552
tp7553
sS'2241'
p7554
(S'ivsd'
p7555
S' IVS Daemon'
p7556
tp7557
sS'995'
p7558
(S'pop3s'
p7559
S' POP3 protocol over TLS/SSL'
p7560
tp7561
sS'994'
p7562
(S'ircs'
p7563
S' irc protocol over TLS/SSL'
p7564
tp7565
sS'997'
p7566
(S'maitrd'
p7567
g83
tp7568
sS'996'
p7569
(S'xtreelic'
p7570
S' XTREE License Server'
p7571
tp7572
sS'991'
p7573
(S'nas'
p7574
S' Netnews Administration System'
p7575
tp7576
sS'990'
p7577
(S'ftps'
p7578
S' ftp protocol, control, over TLS/SSL'
p7579
tp7580
sS'993'
p7581
(S'imaps'
p7582
S' imap4 protocol over TLS/SSL'
p7583
tp7584
sS'2463'
p7585
(S'lsi-raid-mgmt'
p7586
S' LSI RAID Management'
p7587
tp7588
sS'5145'
p7589
(S'rmonitor_secure'
p7590
g83
tp7591
sS'999'
p7592
(S'garcon'
p7593
g83
tp7594
sS'998'
p7595
(S'busboy'
p7596
g83
tp7597
sS'120'
p7598
(S'cfdptkt'
p7599
g83
tp7600
sS'3400'
p7601
(S'csms2'
p7602
S' CSMS2'
p7603
tp7604
sS'122'
p7605
(S'smakynet'
p7606
g83
tp7607
sS'123'
p7608
(S'ntp'
p7609
S' Network Time Protocol'
p7610
tp7611
sS'124'
p7612
(S'ansatrader'
p7613
S' ANSA REX Trader'
p7614
tp7615
sS'125'
p7616
(S'locus-map'
p7617
S' Locus PC-Interface Net Map Ser'
p7618
tp7619
sS'127'
p7620
(S'locus-con'
p7621
S' Locus PC-Interface Conn Server'
p7622
tp7623
sS'128'
p7624
(S'gss-xlicen'
p7625
S' GSS X License Verification'
p7626
tp7627
sS'129'
p7628
(S'pwdgen'
p7629
S' Password Generator Protocol'
p7630
tp7631
sS'5680'
p7632
(S'canna'
p7633
S' Canna (Japanese Input)'
p7634
tp7635
sS'2068'
p7636
(S'advocentkvm'
p7637
S' Advocent KVM Server'
p7638
tp7639
sS'2069'
p7640
(S'event-port'
p7641
S' HTTP Event Port'
p7642
tp7643
sS'3415'
p7644
(S'bcinameservice'
p7645
S' BCI Name Service'
p7646
tp7647
sS'26000'
p7648
(S'quake'
p7649
g83
tp7650
sS'3376'
p7651
(S'cdbroker'
p7652
S' CD Broker'
p7653
tp7654
sS'2062'
p7655
(S'icg-swp'
p7656
S' ICG SWP Port'
p7657
tp7658
sS'2064'
p7659
(S'dnet-keyproxy'
p7660
S' A closed-source client for solving the RSA cryptographic challenge. This is the keyblock proxy port.'
p7661
tp7662
sS'2065'
p7663
(S'dlsrpn'
p7664
S' Data Link Switch Read Port Number'
p7665
tp7666
sS'2067'
p7667
(S'dlswpn'
p7668
S' Data Link Switch Write Port Number'
p7669
tp7670
sS'3374'
p7671
(S'cluster-disc'
p7672
S' Cluster Disc'
p7673
tp7674
sS'3410'
p7675
(S'networklenss'
p7676
S' NetworkLens SSL Event'
p7677
tp7678
sS'9090'
p7679
(S'zeus-admin'
p7680
S' Zeus admin server'
p7681
tp7682
sS'9091'
p7683
(S'xmltec-xmlmail'
p7684
g83
tp7685
sS'3372'
p7686
(S'msdtc'
p7687
S' MS distributed transaction coordinator'
p7688
tp7689
sS'32779'
p7690
(S'sometimes-rpc21'
p7691
S' Sometimes an RPC port on my Solaris box'
p7692
tp7693
sS'3371'
p7694
(S'satvid-datalnk'
p7695
S' Satellite Video Data Link'
p7696
tp7697
sS'9300'
p7698
(S'vrace'
p7699
S' Virtual Racing Service'
p7700
tp7701
sS'3577'
p7702
(S'config-port'
p7703
S' Configuration Port'
p7704
tp7705
sS'32773'
p7706
(S'sometimes-rpc9'
p7707
S' Sometimes an RPC port on my Solaris box (rquotad)'
p7708
tp7709
sS'2930'
p7710
(S'amx-weblinx'
p7711
S' AMX-WEBLINX'
p7712
tp7713
sS'32775'
p7714
(S'sometimes-rpc13'
p7715
S' Sometimes an RPC port on my Solaris box (status)'
p7716
tp7717
sS'1645'
p7718
(S'sightline'
p7719
S' SightLine'
p7720
tp7721
sS'1641'
p7722
(S'invision'
p7723
S' InVision'
p7724
tp7725
sS'578'
p7726
(S'ipdd'
p7727
g83
tp7728
sS'604'
p7729
(S'tunnel'
p7730
S' TUNNEL'
p7731
tp7732
sS'572'
p7733
(S'sonar'
p7734
g83
tp7735
sS'571'
p7736
(S'umeter'
p7737
S' udemon'
p7738
tp7739
sS'570'
p7740
(S'meter'
p7741
S' demon'
p7742
tp7743
sS'577'
p7744
(S'vnas'
p7745
g83
tp7746
sS'2809'
p7747
(S'corbaloc'
p7748
S' Corba'
p7749
tp7750
sS'3168'
p7751
(S'poweronnud'
p7752
S' Now Up-to-Date Public Server'
p7753
tp7754
sS'3167'
p7755
(S'nowcontact'
p7756
S' Now Contact Public Server'
p7757
tp7758
sS'2800'
p7759
(S'acc-raid'
p7760
S' ACC RAID'
p7761
tp7762
sS'3162'
p7763
(S'sflm'
p7764
S' SFLM'
p7765
tp7766
sS'2804'
p7767
(S'dvr-esm'
p7768
S' March Networks Digital Video Recorders and Enterprise Service Manager products'
p7769
tp7770
sS'600'
p7771
(S'ipcserver'
p7772
S' Sun IPC server'
p7773
tp7774
sS'5432'
p7775
(S'postgresql'
p7776
S' PostgreSQL database server'
p7777
tp7778
sS'1420'
p7779
(S'timbuktu-srv4'
p7780
S' Timbuktu Service 4 Port'
p7781
tp7782
sS'1423'
p7783
(S'essbase'
p7784
S' Essbase Arbor Software'
p7785
tp7786
sS'1422'
p7787
(S'autodesk-lm'
p7788
S' Autodesk License Manager'
p7789
tp7790
sS'3368'
p7791
(S'satvid-datalnk'
p7792
S' Satellite Video Data Link'
p7793
tp7794
sS'1424'
p7795
(S'hybrid'
p7796
S' Hybrid Encryption Protocol'
p7797
tp7798
sS'1427'
p7799
(S'mloadd'
p7800
S' mloadd monitoring tool'
p7801
tp7802
sS'1426'
p7803
(S'sas-1'
p7804
S' Satellite-data Acquisition System 1'
p7805
tp7806
sS'1429'
p7807
(S'nms'
p7808
S' Hypercom NMS'
p7809
tp7810
sS'3365'
p7811
(S'contentserver'
p7812
S' Content Server'
p7813
tp7814
sS'602'
p7815
(S'xmlrpc-beep'
p7816
S' XML-RPC over BEEP'
p7817
tp7818
sS'3362'
p7819
(S'dj-ilm'
p7820
S' DJ ILM'
p7821
tp7822
sS'3363'
p7823
(S'nati-vi-server'
p7824
S' NATI Vi Server'
p7825
tp7826
sS'731'
p7827
(S'netviewdm3'
p7828
S' IBM NetView DM/6000 receive/tcp'
p7829
tp7830
sS'730'
p7831
(S'netviewdm2'
p7832
S' IBM NetView DM/6000 send/tcp'
p7833
tp7834
sS'1359'
p7835
(S'ftsrv'
p7836
g83
tp7837
sS'1358'
p7838
(S'connlcli'
p7839
g83
tp7840
sS'8100'
p7841
(S'xprint-server'
p7842
S' Xprint Server'
p7843
tp7844
sS'1353'
p7845
(S'relief'
p7846
S' Relief Consulting'
p7847
tp7848
sS'1352'
p7849
(S'lotusnotes'
p7850
S' Lotus Note'
p7851
tp7852
sS'1351'
p7853
(S'equationbuilder'
p7854
S' Digital Tool Works (MIT)'
p7855
tp7856
sS'466'
p7857
(S'digital-vrc'
p7858
g83
tp7859
sS'1357'
p7860
(S'pegboard'
p7861
S' Electronic PegBoard'
p7862
tp7863
sS'460'
p7864
(S'skronk'
p7865
g83
tp7866
sS'1355'
p7867
(S'intuitive-edge'
p7868
S' Intuitive Edge'
p7869
tp7870
sS'462'
p7871
(S'datasurfsrvsec'
p7872
g83
tp7873
sS'5555'
p7874
(S'freeciv'
p7875
g83
tp7876
sS'5554'
p7877
(S'sgi-esphttp'
p7878
S' SGI ESP HTTP'
p7879
tp7880
sS'5557'
p7881
(S'farenet'
p7882
S' Sandlab FARENET'
p7883
tp7884
sS'5550'
p7885
(S'sdadmind'
p7886
S' ACE/Server services'
p7887
tp7888
sS'5553'
p7889
(S'sgi-eventmond'
p7890
S' SGI Eventmond Port'
p7891
tp7892
sS'6481'
p7893
(S'servicetags'
p7894
S' Service Tags'
p7895
tp7896
sS'1519'
p7897
(S'vpvc'
p7898
S' Virtual Places Video control'
p7899
tp7900
sS'1518'
p7901
(S'vpvd'
p7902
S' Virtual Places Video data'
p7903
tp7904
sS'1515'
p7905
(S'ifor-protocol'
p7906
g83
tp7907
sS'1517'
p7908
(S'vpac'
p7909
S' Virtual Places Audio control'
p7910
tp7911
sS'1516'
p7912
(S'vpad'
p7913
S' Virtual Places Audio data'
p7914
tp7915
sS'1511'
p7916
(S'3l-l1'
p7917
g83
tp7918
sS'1510'
p7919
(S'mvx-lm'
p7920
S' Midland Valley Exploration Ltd. Lic. Man.'
p7921
tp7922
sS'1513'
p7923
(S'fujitsu-dtc'
p7924
S' Fujitsu Systems Business of America, Inc'
p7925
tp7926
sS'6550'
p7927
(S'fg-sysupdate'
p7928
g83
tp7929
sS'3397'
p7930
(S'saposs'
p7931
S' SAP Oss'
p7932
tp7933
sS'9667'
p7934
(S'xmms2'
p7935
S' Cross-platform Music Multiplexing System'
p7936
tp7937
sS'4010'
p7938
(S'samsung-unidex'
p7939
S' Samsung Unidex'
p7940
tp7941
sS'4016'
p7942
(S'talarian-mcast2'
p7943
S' Talarian Mcast'
p7944
tp7945
sS'355'
p7946
(S'datex-asn'
p7947
g83
tp7948
sS'353'
p7949
(S'ndsauth'
p7950
g83
tp7951
sS'352'
p7952
(S'dtag-ste-sb'
p7953
S' DTAG, or bhoedap4'
p7954
tp7955
sS'351'
p7956
(S'matip-type-b'
p7957
S' MATIP Type B or bhoetty also safetp'
p7958
tp7959
sS'350'
p7960
(S'matip-type-a'
p7961
S' MATIP Type A'
p7962
tp7963
sS'3984'
p7964
(S'mapper-nodemgr'
p7965
S' MAPPER network node manager'
p7966
tp7967
sS'3985'
p7968
(S'mapper-mapethd'
p7969
S' MAPPER TCP/IP server'
p7970
tp7971
sS'3986'
p7972
(S'mapper-ws_ethd'
p7973
S' MAPPER workstation server'
p7974
tp7975
sS'3980'
p7976
(S'acms'
p7977
S' Aircraft Cabin Management System'
p7978
tp7979
sS'3981'
p7980
(S'starfish'
p7981
S' Starfish System Admin'
p7982
tp7983
sS'3982'
p7984
(S'eis'
p7985
S' ESRI Image Server'
p7986
tp7987
sS'358'
p7988
(S'shrinkwrap'
p7989
g83
tp7990
sS'6123'
p7991
(S'backup-express'
p7992
S' Backup Express'
p7993
tp7994
sS'1033'
p7995
(S'netinfo'
p7996
S' Netinfo is apparently on many OS X boxes.'
p7997
tp7998
sS'2323'
p7999
(S'3d-nfsd'
p8000
g83
tp8001
sS'2326'
p8002
(S'idcp'
p8003
S' IDCP'
p8004
tp8005
sS'2325'
p8006
(S'ansysli'
p8007
S' ANSYS Licensing Interconnect'
p8008
tp8009
sS'1446'
p8010
(S'ora-lm'
p8011
S' Optical Research Associates License Manager'
p8012
tp8013
sS'1113'
p8014
(S'ltp-deepspace'
p8015
S' Licklider Transmission Protocol'
p8016
tp8017
sS'1112'
p8018
(S'msql'
p8019
S' mini-sql server'
p8020
tp8021
sS'280'
p8022
(S'http-mgmt'
p8023
g83
tp8024
sS'284'
p8025
(S'corerjd'
p8026
g83
tp8027
sS'1114'
p8028
(S'mini-sql'
p8029
S' Mini SQL'
p8030
tp8031
sS'1441'
p8032
(S'cadis-1'
p8033
S' Cadis License Management'
p8034
tp8035
sS'1440'
p8036
(S'eicon-slp'
p8037
S' Eicon Service Location Protocol'
p8038
tp8039
sS'262'
p8040
(S'arcisdms'
p8041
g83
tp8042
sS'261'
p8043
(S'nsiiops'
p8044
S' iiop name service over tls/ssl'
p8045
tp8046
sS'260'
p8047
(S'openport'
p8048
g83
tp8049
sS'267'
p8050
(S'td-service'
p8051
S' Tobit David Service Layer'
p8052
tp8053
sS'265'
p8054
(S'maybe-fw1'
p8055
g83
tp8056
sS'264'
p8057
(S'bgmp'
p8058
g83
tp8059
sS'268'
p8060
(S'td-replica'
p8061
S' Tobit David Replica'
p8062
tp8063
sS'6010'
p8064
(S'x11'
p8065
S' X Window System'
p8066
tp8067
sS'6015'
p8068
(S'x11'
p8069
S' X Window System'
p8070
tp8071
sS'6017'
p8072
(S'xmail-ctrl'
p8073
S' XMail CTRL server'
p8074
tp8075
sS'2492'
p8076
(S'groove'
p8077
S' GROOVE'
p8078
tp8079
sS'1297'
p8080
(S'sdproxy'
p8081
g83
tp8082
sS'2253'
p8083
(S'dtv-chan-req'
p8084
S' DTV Channel Request'
p8085
tp8086
sS'2251'
p8087
(S'dif-port'
p8088
S' Distributed Framework Port'
p8089
tp8090
sS'2250'
p8091
(S'remote-collab'
p8092
g83
tp8093
sS'989'
p8094
(S'ftps-data'
p8095
S' ftp protocol, data, over TLS/SSL'
p8096
tp8097
sS'2472'
p8098
(S'c3'
p8099
S' C3'
p8100
tp8101
sS'5151'
p8102
(S'esri_sde'
p8103
S' ESRI SDE Instance'
p8104
tp8105
sS'5152'
p8106
(S'sde-discovery'
p8107
S' ESRI SDE Instance Discovery'
p8108
tp8109
sS'115'
p8110
(S'sftp'
p8111
S' Simple File Transfer Protocol'
p8112
tp8113
sS'114'
p8114
(S'audionews'
p8115
S' Audio News Multicast'
p8116
tp8117
sS'117'
p8118
(S'uucp-path'
p8119
S' UUCP Path Service'
p8120
tp8121
sS'116'
p8122
(S'ansanotify'
p8123
S' ANSA REX Notify'
p8124
tp8125
sS'111'
p8126
(S'rpcbind'
p8127
S' portmapper, rpcbind'
p8128
tp8129
sS'110'
p8130
(S'pop3'
p8131
S' PostOffice V.3'
p8132
tp8133
sS'113'
p8134
(S'ident'
p8135
S' ident, tap, Authentication Service'
p8136
tp8137
sS'112'
p8138
(S'mcidas'
p8139
S' McIDAS Data Transmission Protocol'
p8140
tp8141
sS'119'
p8142
(S'nntp'
p8143
S' Network News Transfer Protocol'
p8144
tp8145
sS'118'
p8146
(S'sqlserv'
p8147
S' SQL Services'
p8148
tp8149
sS'4800'
p8150
(S'iims'
p8151
S' Icona Instant Messenging System'
p8152
tp8153
sS'17500'
p8154
(S'db-lsp'
p8155
S' Dropbox LanSync Protocol'
p8156
tp8157
sS'2070'
p8158
(S'ah-esp-encap'
p8159
S' AH and ESP Encapsulated in UDP packet'
p8160
tp8161
sS'9084'
p8162
(S'aurora'
p8163
S' IBM AURORA Performance Visualizer'
p8164
tp8165
sS'9080'
p8166
(S'glrpc'
p8167
S' Groove GLRPC'
p8168
tp8169
sS'1035'
p8170
(S'multidropper'
p8171
S' A Multidropper Adware, or PhoneFree'
p8172
tp8173
sS'3221'
p8174
(S'xnm-clear-text'
p8175
S' XML NM over TCP'
p8176
tp8177
sS'7272'
p8178
(S'watchme-7272'
p8179
S' WatchMe Monitoring 7272'
p8180
tp8181
sS'7273'
p8182
(S'openmanage'
p8183
S' Dell OpenManage'
p8184
tp8185
sS'8954'
p8186
(S'cumulus-admin'
p8187
S' Cumulus Admin Port'
p8188
tp8189
sS'5081'
p8190
(S'sdl-ets'
p8191
S' SDL - Ent Trans Server'
p8192
tp8193
sS'3503'
p8194
(S'lsp-ping'
p8195
S' MPLS LSP-echo Port'
p8196
tp8197
sS'3505'
p8198
(S'ccmcomm'
p8199
S' CCM communications port'
p8200
tp8201
sS'3506'
p8202
(S'apc-3506'
p8203
S' APC 3506'
p8204
tp8205
sS'2920'
p8206
(S'roboeda'
p8207
S' roboEDA'
p8208
tp8209
sS'1986'
p8210
(S'licensedaemon'
p8211
S' cisco license management'
p8212
tp8213
sS'1987'
p8214
(S'tr-rsrb-p1'
p8215
S' cisco RSRB Priority 1 port'
p8216
tp8217
sS'1984'
p8218
(S'bigbrother'
p8219
S' Big Brother monitoring server - www.bb4.com'
p8220
tp8221
sS'3210'
p8222
(S'flamenco-proxy'
p8223
S' Flamenco Networks Proxy'
p8224
tp8225
sS'3211'
p8226
(S'avsecuremgmt'
p8227
S' Avocent Secure Management'
p8228
tp8229
sS'1981'
p8230
(S'p2pq'
p8231
S' p2pQ'
p8232
tp8233
sS'1638'
p8234
(S'ismc'
p8235
S' ISP shared management control'
p8236
tp8237
sS'1988'
p8238
(S'tr-rsrb-p2'
p8239
S' cisco RSRB Priority 2 port'
p8240
tp8241
sS'1989'
p8242
(S'tr-rsrb-p3'
p8243
S' cisco RSRB Priority 3 port'
p8244
tp8245
sS'2909'
p8246
(S'funk-dialout'
p8247
S' Funk Dialout'
p8248
tp8249
sS'568'
p8250
(S'ms-shuttle'
p8251
S' Microsoft shuttle'
p8252
tp8253
sS'569'
p8254
(S'ms-rome'
p8255
S' Microsoft rome'
p8256
tp8257
sS'2908'
p8258
(S'mao'
p8259
g83
tp8260
sS'2811'
p8261
(S'gsiftp'
p8262
S' GSI FTP'
p8263
tp8264
sS'2812'
p8265
(S'atmtcp'
p8266
g83
tp8267
sS'560'
p8268
(S'rmonitor'
p8269
S' rmonitord'
p8270
tp8271
sS'561'
p8272
(S'monitor'
p8273
g83
tp8274
sS'8770'
p8275
(S'apple-iphoto'
p8276
S' Apple iPhoto sharing'
p8277
tp8278
sS'563'
p8279
(S'snews'
p8280
g83
tp8281
sS'564'
p8282
(S'9pfs'
p8283
S' plan 9 file service'
p8284
tp8285
sS'62078'
p8286
(S'iphone-sync'
p8287
S' Apparently used by iPhone while syncing - http://code.google.com/p/iphone-elite/source/browse/wiki/Port_62078.wiki'
p8288
tp8289
sS'7080'
p8290
(S'empowerid'
p8291
S' EmpowerID Communication'
p8292
tp8293
sS'1188'
p8294
(S'hp-webadmin'
p8295
S' HP Web Admin'
p8296
tp8297
sS'1186'
p8298
(S'mysql-cluster'
p8299
S' MySQL Cluster Manager'
p8300
tp8301
sS'1187'
p8302
(S'alias'
p8303
S' Alias Service'
p8304
tp8305
sS'1184'
p8306
(S'llsurfup-https'
p8307
S' LL Surfup HTTPS'
p8308
tp8309
sS'1185'
p8310
(S'catchpole'
p8311
S' Catchpole port'
p8312
tp8313
sS'1182'
p8314
(S'accelenet'
p8315
S' AcceleNet Control'
p8316
tp8317
sS'1183'
p8318
(S'llsurfup-http'
p8319
S' LL Surfup HTTP'
p8320
tp8321
sS'1180'
p8322
(S'mc-client'
p8323
S' Millicent Client Proxy'
p8324
tp8325
sS'3370'
p8326
(S'satvid-datalnk'
p8327
S' Satellite Video Data Link'
p8328
tp8329
sS'723'
p8330
(S'omfs'
p8331
S' OpenMosix File System'
p8332
tp8333
sS'1745'
p8334
(S'remote-winsock'
p8335
g83
tp8336
sS'729'
p8337
(S'netviewdm1'
p8338
S' IBM NetView DM/6000 Server/Client'
p8339
tp8340
sS'1164'
p8341
(S'qsm-proxy'
p8342
S' QSM Proxy Service'
p8343
tp8344
sS'1165'
p8345
(S'qsm-gui'
p8346
S' QSM GUI Service'
p8347
tp8348
sS'1166'
p8349
(S'qsm-remote'
p8350
S' QSM RemoteExec'
p8351
tp8352
sS'1167'
p8353
(S'cisco-ipsla'
p8354
S' Cisco IP SLAs Control Protocol'
p8355
tp8356
sS'1162'
p8357
(S'health-trap'
p8358
S' Health Trap'
p8359
tp8360
sS'1163'
p8361
(S'sddp'
p8362
S' SmartDialer Data Protocol'
p8363
tp8364
sS'1168'
p8365
(S'vchat'
p8366
S' VChat Conference Service'
p8367
tp8368
sS'1169'
p8369
(S'tripwire'
p8370
S' TRIPWIRE'
p8371
tp8372
sS'5631'
p8373
(S'pcanywheredata'
p8374
g83
tp8375
sS'5520'
p8376
(S'sdlog'
p8377
S' ACE/Server services'
p8378
tp8379
sS'6548'
p8380
(S'powerchuteplus'
p8381
g83
tp8382
sS'472'
p8383
(S'ljk-login'
p8384
g83
tp8385
sS'48'
p8386
(S'auditd'
p8387
S' Digital Audit Daemon'
p8388
tp8389
sS'49'
p8390
(S'tacacs'
p8391
S' Login Host Protocol (TACACS)'
p8392
tp8393
sS'47'
p8394
(S'ni-ftp'
p8395
S' NI FTP'
p8396
tp8397
sS'44'
p8398
(S'mpm-flags'
p8399
S' MPM FLAGS Protocol'
p8400
tp8401
sS'45'
p8402
(S'mpm'
p8403
S' Message Processing Module [recv]'
p8404
tp8405
sS'42'
p8406
(S'nameserver'
p8407
S' Host Name Server'
p8408
tp8409
sS'43'
p8410
(S'whois'
p8411
S' nicname'
p8412
tp8413
sS'1569'
p8414
(S'ets'
p8415
g83
tp8416
sS'1299'
p8417
(S'hp-sci'
p8418
g83
tp8419
sS'1560'
p8420
(S'asci-val'
p8421
S' ASCI-RemoteSHADOW'
p8422
tp8423
sS'1290'
p8424
(S'winjaserver'
p8425
S' WinJaServer'
p8426
tp8427
sS'1291'
p8428
(S'seagulllms'
p8429
S' SEAGULLLMS'
p8430
tp8431
sS'1296'
p8432
(S'dproxy'
p8433
g83
tp8434
sS'1565'
p8435
(S'winddlb'
p8436
S' WinDD'
p8437
tp8438
sS'1566'
p8439
(S'corelvideo'
p8440
S' CORELVIDEO'
p8441
tp8442
sS'5252'
p8443
(S'movaz-ssc'
p8444
S' Movaz SSC'
p8445
tp8446
sS'3190'
p8447
(S'csvr-proxy'
p8448
S' ConServR Proxy'
p8449
tp8450
sS'5250'
p8451
(S'soagateway'
p8452
S' soaGateway'
p8453
tp8454
sS'8008'
p8455
(S'http'
p8456
S' IBM HTTP server'
p8457
tp8458
sS'8009'
p8459
(S'ajp13'
p8460
S' Apache JServ Protocol '
p8461
tp8462
sS'8005'
p8463
(S'mxi'
p8464
S' MXI Generation II for z/OS'
p8465
tp8466
sS'8007'
p8467
(S'ajp12'
p8468
S' Apache JServ Protocol 1.x'
p8469
tp8470
sS'8000'
p8471
(S'http-alt'
p8472
S' A common alternative http port'
p8473
tp8474
sS'8001'
p8475
(S'vcom-tunnel'
p8476
S' VCOM Tunnel'
p8477
tp8478
sS'8002'
p8479
(S'teradataordbms'
p8480
S' Teradata ORDBMS'
p8481
tp8482
sS'8003'
p8483
(S'mcreport'
p8484
S' Mulberry Connect Reporting Service'
p8485
tp8486
sS'6547'
p8487
(S'powerchuteplus'
p8488
g83
tp8489
sS'6544'
p8490
(S'mythtv'
p8491
g83
tp8492
sS'6543'
p8493
(S'mythtv'
p8494
g83
tp8495
sS'1201'
p8496
(S'nucleus-sand'
p8497
S' Nucleus Sand Database Server'
p8498
tp8499
sS'4442'
p8500
(S'saris'
p8501
S' Saris'
p8502
tp8503
sS'5632'
p8504
(S'pcanywherestat'
p8505
g83
tp8506
sS'5633'
p8507
(S'beorl'
p8508
S' BE Operations Request Listener'
p8509
tp8510
sS'1366'
p8511
(S'netware-csp'
p8512
S' Novell NetWare Comm Service Platform'
p8513
tp8514
sS'1367'
p8515
(S'dcs'
p8516
g83
tp8517
sS'1364'
p8518
(S'ndm-server'
p8519
S' Network DataMover Server'
p8520
tp8521
sS'1365'
p8522
(S'adapt-sna'
p8523
S' Network Software Associates'
p8524
tp8525
sS'1362'
p8526
(S'timeflies'
p8527
g83
tp8528
sS'1363'
p8529
(S'ndm-requester'
p8530
S' Network DataMover Requester'
p8531
tp8532
sS'1360'
p8533
(S'mimer'
p8534
g83
tp8535
sS'1361'
p8536
(S'linx'
p8537
g83
tp8538
sS'4444'
p8539
(S'krb524'
p8540
S' Kerberos 5 to 4 ticket xlator'
p8541
tp8542
sS'479'
p8543
(S'iafserver'
p8544
g83
tp8545
sS'1368'
p8546
(S'screencast'
p8547
g83
tp8548
sS'1369'
p8549
(S'gv-us'
p8550
S' GlobalView to Unix Shell'
p8551
tp8552
s.